
wencry:     file format elf64-x86-64


Disassembly of section .init:

0000000000001000 <_init>:
    1000:	f3 0f 1e fa          	endbr64 
    1004:	48 83 ec 08          	sub    $0x8,%rsp
    1008:	48 8b 05 d9 5f 00 00 	mov    0x5fd9(%rip),%rax        # 6fe8 <__gmon_start__@Base>
    100f:	48 85 c0             	test   %rax,%rax
    1012:	74 02                	je     1016 <_init+0x16>
    1014:	ff d0                	call   *%rax
    1016:	48 83 c4 08          	add    $0x8,%rsp
    101a:	c3                   	ret    

Disassembly of section .plt:

0000000000001020 <.plt>:
    1020:	ff 35 12 5f 00 00    	push   0x5f12(%rip)        # 6f38 <_GLOBAL_OFFSET_TABLE_+0x8>
    1026:	f2 ff 25 13 5f 00 00 	bnd jmp *0x5f13(%rip)        # 6f40 <_GLOBAL_OFFSET_TABLE_+0x10>
    102d:	0f 1f 00             	nopl   (%rax)
    1030:	f3 0f 1e fa          	endbr64 
    1034:	68 00 00 00 00       	push   $0x0
    1039:	f2 e9 e1 ff ff ff    	bnd jmp 1020 <_init+0x20>
    103f:	90                   	nop
    1040:	f3 0f 1e fa          	endbr64 
    1044:	68 01 00 00 00       	push   $0x1
    1049:	f2 e9 d1 ff ff ff    	bnd jmp 1020 <_init+0x20>
    104f:	90                   	nop
    1050:	f3 0f 1e fa          	endbr64 
    1054:	68 02 00 00 00       	push   $0x2
    1059:	f2 e9 c1 ff ff ff    	bnd jmp 1020 <_init+0x20>
    105f:	90                   	nop
    1060:	f3 0f 1e fa          	endbr64 
    1064:	68 03 00 00 00       	push   $0x3
    1069:	f2 e9 b1 ff ff ff    	bnd jmp 1020 <_init+0x20>
    106f:	90                   	nop
    1070:	f3 0f 1e fa          	endbr64 
    1074:	68 04 00 00 00       	push   $0x4
    1079:	f2 e9 a1 ff ff ff    	bnd jmp 1020 <_init+0x20>
    107f:	90                   	nop
    1080:	f3 0f 1e fa          	endbr64 
    1084:	68 05 00 00 00       	push   $0x5
    1089:	f2 e9 91 ff ff ff    	bnd jmp 1020 <_init+0x20>
    108f:	90                   	nop
    1090:	f3 0f 1e fa          	endbr64 
    1094:	68 06 00 00 00       	push   $0x6
    1099:	f2 e9 81 ff ff ff    	bnd jmp 1020 <_init+0x20>
    109f:	90                   	nop
    10a0:	f3 0f 1e fa          	endbr64 
    10a4:	68 07 00 00 00       	push   $0x7
    10a9:	f2 e9 71 ff ff ff    	bnd jmp 1020 <_init+0x20>
    10af:	90                   	nop
    10b0:	f3 0f 1e fa          	endbr64 
    10b4:	68 08 00 00 00       	push   $0x8
    10b9:	f2 e9 61 ff ff ff    	bnd jmp 1020 <_init+0x20>
    10bf:	90                   	nop
    10c0:	f3 0f 1e fa          	endbr64 
    10c4:	68 09 00 00 00       	push   $0x9
    10c9:	f2 e9 51 ff ff ff    	bnd jmp 1020 <_init+0x20>
    10cf:	90                   	nop
    10d0:	f3 0f 1e fa          	endbr64 
    10d4:	68 0a 00 00 00       	push   $0xa
    10d9:	f2 e9 41 ff ff ff    	bnd jmp 1020 <_init+0x20>
    10df:	90                   	nop
    10e0:	f3 0f 1e fa          	endbr64 
    10e4:	68 0b 00 00 00       	push   $0xb
    10e9:	f2 e9 31 ff ff ff    	bnd jmp 1020 <_init+0x20>
    10ef:	90                   	nop
    10f0:	f3 0f 1e fa          	endbr64 
    10f4:	68 0c 00 00 00       	push   $0xc
    10f9:	f2 e9 21 ff ff ff    	bnd jmp 1020 <_init+0x20>
    10ff:	90                   	nop
    1100:	f3 0f 1e fa          	endbr64 
    1104:	68 0d 00 00 00       	push   $0xd
    1109:	f2 e9 11 ff ff ff    	bnd jmp 1020 <_init+0x20>
    110f:	90                   	nop
    1110:	f3 0f 1e fa          	endbr64 
    1114:	68 0e 00 00 00       	push   $0xe
    1119:	f2 e9 01 ff ff ff    	bnd jmp 1020 <_init+0x20>
    111f:	90                   	nop
    1120:	f3 0f 1e fa          	endbr64 
    1124:	68 0f 00 00 00       	push   $0xf
    1129:	f2 e9 f1 fe ff ff    	bnd jmp 1020 <_init+0x20>
    112f:	90                   	nop
    1130:	f3 0f 1e fa          	endbr64 
    1134:	68 10 00 00 00       	push   $0x10
    1139:	f2 e9 e1 fe ff ff    	bnd jmp 1020 <_init+0x20>
    113f:	90                   	nop
    1140:	f3 0f 1e fa          	endbr64 
    1144:	68 11 00 00 00       	push   $0x11
    1149:	f2 e9 d1 fe ff ff    	bnd jmp 1020 <_init+0x20>
    114f:	90                   	nop

Disassembly of section .plt.got:

0000000000001150 <__cxa_finalize@plt>:
    1150:	f3 0f 1e fa          	endbr64 
    1154:	f2 ff 25 9d 5e 00 00 	bnd jmp *0x5e9d(%rip)        # 6ff8 <__cxa_finalize@GLIBC_2.2.5>
    115b:	0f 1f 44 00 00       	nopl   0x0(%rax,%rax,1)

Disassembly of section .plt.sec:

0000000000001160 <free@plt>:
    1160:	f3 0f 1e fa          	endbr64 
    1164:	f2 ff 25 dd 5d 00 00 	bnd jmp *0x5ddd(%rip)        # 6f48 <free@GLIBC_2.2.5>
    116b:	0f 1f 44 00 00       	nopl   0x0(%rax,%rax,1)

0000000000001170 <puts@plt>:
    1170:	f3 0f 1e fa          	endbr64 
    1174:	f2 ff 25 d5 5d 00 00 	bnd jmp *0x5dd5(%rip)        # 6f50 <puts@GLIBC_2.2.5>
    117b:	0f 1f 44 00 00       	nopl   0x0(%rax,%rax,1)

0000000000001180 <fread@plt>:
    1180:	f3 0f 1e fa          	endbr64 
    1184:	f2 ff 25 cd 5d 00 00 	bnd jmp *0x5dcd(%rip)        # 6f58 <fread@GLIBC_2.2.5>
    118b:	0f 1f 44 00 00       	nopl   0x0(%rax,%rax,1)

0000000000001190 <fclose@plt>:
    1190:	f3 0f 1e fa          	endbr64 
    1194:	f2 ff 25 c5 5d 00 00 	bnd jmp *0x5dc5(%rip)        # 6f60 <fclose@GLIBC_2.2.5>
    119b:	0f 1f 44 00 00       	nopl   0x0(%rax,%rax,1)

00000000000011a0 <strlen@plt>:
    11a0:	f3 0f 1e fa          	endbr64 
    11a4:	f2 ff 25 bd 5d 00 00 	bnd jmp *0x5dbd(%rip)        # 6f68 <strlen@GLIBC_2.2.5>
    11ab:	0f 1f 44 00 00       	nopl   0x0(%rax,%rax,1)

00000000000011b0 <__stack_chk_fail@plt>:
    11b0:	f3 0f 1e fa          	endbr64 
    11b4:	f2 ff 25 b5 5d 00 00 	bnd jmp *0x5db5(%rip)        # 6f70 <__stack_chk_fail@GLIBC_2.4>
    11bb:	0f 1f 44 00 00       	nopl   0x0(%rax,%rax,1)

00000000000011c0 <srand@plt>:
    11c0:	f3 0f 1e fa          	endbr64 
    11c4:	f2 ff 25 ad 5d 00 00 	bnd jmp *0x5dad(%rip)        # 6f78 <srand@GLIBC_2.2.5>
    11cb:	0f 1f 44 00 00       	nopl   0x0(%rax,%rax,1)

00000000000011d0 <__memcpy_chk@plt>:
    11d0:	f3 0f 1e fa          	endbr64 
    11d4:	f2 ff 25 a5 5d 00 00 	bnd jmp *0x5da5(%rip)        # 6f80 <__memcpy_chk@GLIBC_2.3.4>
    11db:	0f 1f 44 00 00       	nopl   0x0(%rax,%rax,1)

00000000000011e0 <time@plt>:
    11e0:	f3 0f 1e fa          	endbr64 
    11e4:	f2 ff 25 9d 5d 00 00 	bnd jmp *0x5d9d(%rip)        # 6f88 <time@GLIBC_2.2.5>
    11eb:	0f 1f 44 00 00       	nopl   0x0(%rax,%rax,1)

00000000000011f0 <malloc@plt>:
    11f0:	f3 0f 1e fa          	endbr64 
    11f4:	f2 ff 25 95 5d 00 00 	bnd jmp *0x5d95(%rip)        # 6f90 <malloc@GLIBC_2.2.5>
    11fb:	0f 1f 44 00 00       	nopl   0x0(%rax,%rax,1)

0000000000001200 <fflush@plt>:
    1200:	f3 0f 1e fa          	endbr64 
    1204:	f2 ff 25 8d 5d 00 00 	bnd jmp *0x5d8d(%rip)        # 6f98 <fflush@GLIBC_2.2.5>
    120b:	0f 1f 44 00 00       	nopl   0x0(%rax,%rax,1)

0000000000001210 <fseek@plt>:
    1210:	f3 0f 1e fa          	endbr64 
    1214:	f2 ff 25 85 5d 00 00 	bnd jmp *0x5d85(%rip)        # 6fa0 <fseek@GLIBC_2.2.5>
    121b:	0f 1f 44 00 00       	nopl   0x0(%rax,%rax,1)

0000000000001220 <__printf_chk@plt>:
    1220:	f3 0f 1e fa          	endbr64 
    1224:	f2 ff 25 7d 5d 00 00 	bnd jmp *0x5d7d(%rip)        # 6fa8 <__printf_chk@GLIBC_2.3.4>
    122b:	0f 1f 44 00 00       	nopl   0x0(%rax,%rax,1)

0000000000001230 <fopen@plt>:
    1230:	f3 0f 1e fa          	endbr64 
    1234:	f2 ff 25 75 5d 00 00 	bnd jmp *0x5d75(%rip)        # 6fb0 <fopen@GLIBC_2.2.5>
    123b:	0f 1f 44 00 00       	nopl   0x0(%rax,%rax,1)

0000000000001240 <__isoc99_scanf@plt>:
    1240:	f3 0f 1e fa          	endbr64 
    1244:	f2 ff 25 6d 5d 00 00 	bnd jmp *0x5d6d(%rip)        # 6fb8 <__isoc99_scanf@GLIBC_2.7>
    124b:	0f 1f 44 00 00       	nopl   0x0(%rax,%rax,1)

0000000000001250 <fwrite@plt>:
    1250:	f3 0f 1e fa          	endbr64 
    1254:	f2 ff 25 65 5d 00 00 	bnd jmp *0x5d65(%rip)        # 6fc0 <fwrite@GLIBC_2.2.5>
    125b:	0f 1f 44 00 00       	nopl   0x0(%rax,%rax,1)

0000000000001260 <rand@plt>:
    1260:	f3 0f 1e fa          	endbr64 
    1264:	f2 ff 25 5d 5d 00 00 	bnd jmp *0x5d5d(%rip)        # 6fc8 <rand@GLIBC_2.2.5>
    126b:	0f 1f 44 00 00       	nopl   0x0(%rax,%rax,1)

0000000000001270 <__sprintf_chk@plt>:
    1270:	f3 0f 1e fa          	endbr64 
    1274:	f2 ff 25 55 5d 00 00 	bnd jmp *0x5d55(%rip)        # 6fd0 <__sprintf_chk@GLIBC_2.3.4>
    127b:	0f 1f 44 00 00       	nopl   0x0(%rax,%rax,1)

Disassembly of section .text:

0000000000001280 <main>:
    1280:	f3 0f 1e fa          	endbr64 
    1284:	41 54                	push   %r12
    1286:	49 89 f4             	mov    %rsi,%r12
    1289:	55                   	push   %rbp
    128a:	89 fd                	mov    %edi,%ebp
    128c:	48 83 ec 38          	sub    $0x38,%rsp
    1290:	64 48 8b 04 25 28 00 	mov    %fs:0x28,%rax
    1297:	00 00 
    1299:	48 89 44 24 28       	mov    %rax,0x28(%rsp)
    129e:	31 c0                	xor    %eax,%eax
    12a0:	e8 6b 03 00 00       	call   1610 <init>
    12a5:	83 fd 01             	cmp    $0x1,%ebp
    12a8:	0f 84 c5 00 00 00    	je     1373 <main+0xf3>
    12ae:	8d 45 fc             	lea    -0x4(%rbp),%eax
    12b1:	83 f8 01             	cmp    $0x1,%eax
    12b4:	0f 87 88 00 00 00    	ja     1342 <main+0xc2>
    12ba:	89 ee                	mov    %ebp,%esi
    12bc:	48 89 e7             	mov    %rsp,%rdi
    12bf:	4c 89 e2             	mov    %r12,%rdx
    12c2:	e8 79 1d 00 00       	call   3040 <get_v_mod2>
    12c7:	48 8b 2c 24          	mov    (%rsp),%rbp
    12cb:	48 85 ed             	test   %rbp,%rbp
    12ce:	0f 84 b2 00 00 00    	je     1386 <main+0x106>
    12d4:	0f b6 44 24 18       	movzbl 0x18(%rsp),%eax
    12d9:	48 89 2c 24          	mov    %rbp,(%rsp)
    12dd:	83 e0 df             	and    $0xffffffdf,%eax
    12e0:	3c 45                	cmp    $0x45,%al
    12e2:	75 71                	jne    1355 <main+0xd5>
    12e4:	ff 74 24 18          	push   0x18(%rsp)
    12e8:	ff 74 24 18          	push   0x18(%rsp)
    12ec:	ff 74 24 18          	push   0x18(%rsp)
    12f0:	ff 74 24 18          	push   0x18(%rsp)
    12f4:	e8 97 01 00 00       	call   1490 <encrypt>
    12f9:	48 83 c4 20          	add    $0x20,%rsp
    12fd:	49 89 c4             	mov    %rax,%r12
    1300:	48 89 ef             	mov    %rbp,%rdi
    1303:	e8 88 fe ff ff       	call   1190 <fclose@plt>
    1308:	48 8b 7c 24 08       	mov    0x8(%rsp),%rdi
    130d:	e8 7e fe ff ff       	call   1190 <fclose@plt>
    1312:	4c 89 e2             	mov    %r12,%rdx
    1315:	bf 01 00 00 00       	mov    $0x1,%edi
    131a:	31 c0                	xor    %eax,%eax
    131c:	48 8d 35 44 2d 00 00 	lea    0x2d44(%rip),%rsi        # 4067 <_IO_stdin_used+0x67>
    1323:	e8 f8 fe ff ff       	call   1220 <__printf_chk@plt>
    1328:	31 c0                	xor    %eax,%eax
    132a:	48 8b 54 24 28       	mov    0x28(%rsp),%rdx
    132f:	64 48 2b 14 25 28 00 	sub    %fs:0x28,%rdx
    1336:	00 00 
    1338:	75 5d                	jne    1397 <main+0x117>
    133a:	48 83 c4 38          	add    $0x38,%rsp
    133e:	5d                   	pop    %rbp
    133f:	41 5c                	pop    %r12
    1341:	c3                   	ret    
    1342:	48 8d 3d 0e 2d 00 00 	lea    0x2d0e(%rip),%rdi        # 4057 <_IO_stdin_used+0x57>
    1349:	e8 22 fe ff ff       	call   1170 <puts@plt>
    134e:	b8 01 00 00 00       	mov    $0x1,%eax
    1353:	eb d5                	jmp    132a <main+0xaa>
    1355:	ff 74 24 18          	push   0x18(%rsp)
    1359:	ff 74 24 18          	push   0x18(%rsp)
    135d:	ff 74 24 18          	push   0x18(%rsp)
    1361:	ff 74 24 18          	push   0x18(%rsp)
    1365:	e8 e6 01 00 00       	call   1550 <decrypt>
    136a:	48 83 c4 20          	add    $0x20,%rsp
    136e:	49 89 c4             	mov    %rax,%r12
    1371:	eb 8d                	jmp    1300 <main+0x80>
    1373:	48 89 e7             	mov    %rsp,%rdi
    1376:	31 c0                	xor    %eax,%eax
    1378:	e8 f3 19 00 00       	call   2d70 <get_v_mod1>
    137d:	48 8b 2c 24          	mov    (%rsp),%rbp
    1381:	e9 45 ff ff ff       	jmp    12cb <main+0x4b>
    1386:	48 8d 3d ca 2c 00 00 	lea    0x2cca(%rip),%rdi        # 4057 <_IO_stdin_used+0x57>
    138d:	e8 de fd ff ff       	call   1170 <puts@plt>
    1392:	83 c8 ff             	or     $0xffffffff,%eax
    1395:	eb 93                	jmp    132a <main+0xaa>
    1397:	e8 14 fe ff ff       	call   11b0 <__stack_chk_fail@plt>
    139c:	0f 1f 40 00          	nopl   0x0(%rax)

00000000000013a0 <_start>:
    13a0:	f3 0f 1e fa          	endbr64 
    13a4:	31 ed                	xor    %ebp,%ebp
    13a6:	49 89 d1             	mov    %rdx,%r9
    13a9:	5e                   	pop    %rsi
    13aa:	48 89 e2             	mov    %rsp,%rdx
    13ad:	48 83 e4 f0          	and    $0xfffffffffffffff0,%rsp
    13b1:	50                   	push   %rax
    13b2:	54                   	push   %rsp
    13b3:	45 31 c0             	xor    %r8d,%r8d
    13b6:	31 c9                	xor    %ecx,%ecx
    13b8:	48 8d 3d c1 fe ff ff 	lea    -0x13f(%rip),%rdi        # 1280 <main>
    13bf:	ff 15 13 5c 00 00    	call   *0x5c13(%rip)        # 6fd8 <__libc_start_main@GLIBC_2.34>
    13c5:	f4                   	hlt    
    13c6:	66 2e 0f 1f 84 00 00 	cs nopw 0x0(%rax,%rax,1)
    13cd:	00 00 00 

00000000000013d0 <deregister_tm_clones>:
    13d0:	48 8d 3d 39 5c 00 00 	lea    0x5c39(%rip),%rdi        # 7010 <__TMC_END__>
    13d7:	48 8d 05 32 5c 00 00 	lea    0x5c32(%rip),%rax        # 7010 <__TMC_END__>
    13de:	48 39 f8             	cmp    %rdi,%rax
    13e1:	74 15                	je     13f8 <deregister_tm_clones+0x28>
    13e3:	48 8b 05 f6 5b 00 00 	mov    0x5bf6(%rip),%rax        # 6fe0 <_ITM_deregisterTMCloneTable@Base>
    13ea:	48 85 c0             	test   %rax,%rax
    13ed:	74 09                	je     13f8 <deregister_tm_clones+0x28>
    13ef:	ff e0                	jmp    *%rax
    13f1:	0f 1f 80 00 00 00 00 	nopl   0x0(%rax)
    13f8:	c3                   	ret    
    13f9:	0f 1f 80 00 00 00 00 	nopl   0x0(%rax)

0000000000001400 <register_tm_clones>:
    1400:	48 8d 3d 09 5c 00 00 	lea    0x5c09(%rip),%rdi        # 7010 <__TMC_END__>
    1407:	48 8d 35 02 5c 00 00 	lea    0x5c02(%rip),%rsi        # 7010 <__TMC_END__>
    140e:	48 29 fe             	sub    %rdi,%rsi
    1411:	48 89 f0             	mov    %rsi,%rax
    1414:	48 c1 ee 3f          	shr    $0x3f,%rsi
    1418:	48 c1 f8 03          	sar    $0x3,%rax
    141c:	48 01 c6             	add    %rax,%rsi
    141f:	48 d1 fe             	sar    %rsi
    1422:	74 14                	je     1438 <register_tm_clones+0x38>
    1424:	48 8b 05 c5 5b 00 00 	mov    0x5bc5(%rip),%rax        # 6ff0 <_ITM_registerTMCloneTable@Base>
    142b:	48 85 c0             	test   %rax,%rax
    142e:	74 08                	je     1438 <register_tm_clones+0x38>
    1430:	ff e0                	jmp    *%rax
    1432:	66 0f 1f 44 00 00    	nopw   0x0(%rax,%rax,1)
    1438:	c3                   	ret    
    1439:	0f 1f 80 00 00 00 00 	nopl   0x0(%rax)

0000000000001440 <__do_global_dtors_aux>:
    1440:	f3 0f 1e fa          	endbr64 
    1444:	80 3d dd 5b 00 00 00 	cmpb   $0x0,0x5bdd(%rip)        # 7028 <completed.0>
    144b:	75 2b                	jne    1478 <__do_global_dtors_aux+0x38>
    144d:	55                   	push   %rbp
    144e:	48 83 3d a2 5b 00 00 	cmpq   $0x0,0x5ba2(%rip)        # 6ff8 <__cxa_finalize@GLIBC_2.2.5>
    1455:	00 
    1456:	48 89 e5             	mov    %rsp,%rbp
    1459:	74 0c                	je     1467 <__do_global_dtors_aux+0x27>
    145b:	48 8b 3d a6 5b 00 00 	mov    0x5ba6(%rip),%rdi        # 7008 <__dso_handle>
    1462:	e8 e9 fc ff ff       	call   1150 <__cxa_finalize@plt>
    1467:	e8 64 ff ff ff       	call   13d0 <deregister_tm_clones>
    146c:	c6 05 b5 5b 00 00 01 	movb   $0x1,0x5bb5(%rip)        # 7028 <completed.0>
    1473:	5d                   	pop    %rbp
    1474:	c3                   	ret    
    1475:	0f 1f 00             	nopl   (%rax)
    1478:	c3                   	ret    
    1479:	0f 1f 80 00 00 00 00 	nopl   0x0(%rax)

0000000000001480 <frame_dummy>:
    1480:	f3 0f 1e fa          	endbr64 
    1484:	e9 77 ff ff ff       	jmp    1400 <register_tm_clones>
    1489:	0f 1f 80 00 00 00 00 	nopl   0x0(%rax)

0000000000001490 <encrypt>:
    1490:	f3 0f 1e fa          	endbr64 
    1494:	41 55                	push   %r13
    1496:	31 ff                	xor    %edi,%edi
    1498:	41 54                	push   %r12
    149a:	55                   	push   %rbp
    149b:	53                   	push   %rbx
    149c:	48 81 ec 98 00 00 00 	sub    $0x98,%rsp
    14a3:	64 48 8b 04 25 28 00 	mov    %fs:0x28,%rax
    14aa:	00 00 
    14ac:	48 89 84 24 88 00 00 	mov    %rax,0x88(%rsp)
    14b3:	00 
    14b4:	31 c0                	xor    %eax,%eax
    14b6:	4c 8b ac 24 d0 00 00 	mov    0xd0(%rsp),%r13
    14bd:	00 
    14be:	48 89 e5             	mov    %rsp,%rbp
    14c1:	e8 1a fd ff ff       	call   11e0 <time@plt>
    14c6:	48 8b b4 24 c8 00 00 	mov    0xc8(%rsp),%rsi
    14cd:	00 
    14ce:	48 8b bc 24 c0 00 00 	mov    0xc0(%rsp),%rdi
    14d5:	00 
    14d6:	4c 89 ea             	mov    %r13,%rdx
    14d9:	49 89 c4             	mov    %rax,%r12
    14dc:	e8 df 01 00 00       	call   16c0 <enc>
    14e1:	31 ff                	xor    %edi,%edi
    14e3:	e8 f8 fc ff ff       	call   11e0 <time@plt>
    14e8:	b9 10 00 00 00       	mov    $0x10,%ecx
    14ed:	48 89 ef             	mov    %rbp,%rdi
    14f0:	48 89 c3             	mov    %rax,%rbx
    14f3:	31 c0                	xor    %eax,%eax
    14f5:	f3 48 ab             	rep stos %rax,%es:(%rdi)
    14f8:	48 8d 3d 05 2b 00 00 	lea    0x2b05(%rip),%rdi        # 4004 <_IO_stdin_used+0x4>
    14ff:	e8 6c fc ff ff       	call   1170 <puts@plt>
    1504:	48 89 ea             	mov    %rbp,%rdx
    1507:	be 10 00 00 00       	mov    $0x10,%esi
    150c:	4c 89 ef             	mov    %r13,%rdi
    150f:	e8 ac 1d 00 00       	call   32c0 <hex_to_base64>
    1514:	48 89 ef             	mov    %rbp,%rdi
    1517:	e8 54 fc ff ff       	call   1170 <puts@plt>
    151c:	48 89 d8             	mov    %rbx,%rax
    151f:	4c 29 e0             	sub    %r12,%rax
    1522:	48 8b 94 24 88 00 00 	mov    0x88(%rsp),%rdx
    1529:	00 
    152a:	64 48 2b 14 25 28 00 	sub    %fs:0x28,%rdx
    1531:	00 00 
    1533:	75 0e                	jne    1543 <encrypt+0xb3>
    1535:	48 81 c4 98 00 00 00 	add    $0x98,%rsp
    153c:	5b                   	pop    %rbx
    153d:	5d                   	pop    %rbp
    153e:	41 5c                	pop    %r12
    1540:	41 5d                	pop    %r13
    1542:	c3                   	ret    
    1543:	e8 68 fc ff ff       	call   11b0 <__stack_chk_fail@plt>
    1548:	0f 1f 84 00 00 00 00 	nopl   0x0(%rax,%rax,1)
    154f:	00 

0000000000001550 <decrypt>:
    1550:	f3 0f 1e fa          	endbr64 
    1554:	41 54                	push   %r12
    1556:	31 ff                	xor    %edi,%edi
    1558:	55                   	push   %rbp
    1559:	53                   	push   %rbx
    155a:	e8 81 fc ff ff       	call   11e0 <time@plt>
    155f:	48 8b 54 24 30       	mov    0x30(%rsp),%rdx
    1564:	48 8b 74 24 28       	mov    0x28(%rsp),%rsi
    1569:	48 8b 7c 24 20       	mov    0x20(%rsp),%rdi
    156e:	49 89 c4             	mov    %rax,%r12
    1571:	e8 ca 03 00 00       	call   1940 <dec>
    1576:	31 ff                	xor    %edi,%edi
    1578:	89 c5                	mov    %eax,%ebp
    157a:	e8 61 fc ff ff       	call   11e0 <time@plt>
    157f:	48 89 c3             	mov    %rax,%rbx
    1582:	85 ed                	test   %ebp,%ebp
    1584:	74 1a                	je     15a0 <decrypt+0x50>
    1586:	83 fd 01             	cmp    $0x1,%ebp
    1589:	74 55                	je     15e0 <decrypt+0x90>
    158b:	83 fd 02             	cmp    $0x2,%ebp
    158e:	74 30                	je     15c0 <decrypt+0x70>
    1590:	83 fd 03             	cmp    $0x3,%ebp
    1593:	74 6b                	je     1600 <decrypt+0xb0>
    1595:	48 89 d8             	mov    %rbx,%rax
    1598:	5b                   	pop    %rbx
    1599:	5d                   	pop    %rbp
    159a:	4c 29 e0             	sub    %r12,%rax
    159d:	41 5c                	pop    %r12
    159f:	c3                   	ret    
    15a0:	48 8d 3d 74 2a 00 00 	lea    0x2a74(%rip),%rdi        # 401b <_IO_stdin_used+0x1b>
    15a7:	e8 c4 fb ff ff       	call   1170 <puts@plt>
    15ac:	48 89 d8             	mov    %rbx,%rax
    15af:	5b                   	pop    %rbx
    15b0:	5d                   	pop    %rbp
    15b1:	4c 29 e0             	sub    %r12,%rax
    15b4:	41 5c                	pop    %r12
    15b6:	c3                   	ret    
    15b7:	66 0f 1f 84 00 00 00 	nopw   0x0(%rax,%rax,1)
    15be:	00 00 
    15c0:	48 8d 3d 72 2a 00 00 	lea    0x2a72(%rip),%rdi        # 4039 <_IO_stdin_used+0x39>
    15c7:	e8 a4 fb ff ff       	call   1170 <puts@plt>
    15cc:	48 89 d8             	mov    %rbx,%rax
    15cf:	5b                   	pop    %rbx
    15d0:	5d                   	pop    %rbp
    15d1:	4c 29 e0             	sub    %r12,%rax
    15d4:	41 5c                	pop    %r12
    15d6:	c3                   	ret    
    15d7:	66 0f 1f 84 00 00 00 	nopw   0x0(%rax,%rax,1)
    15de:	00 00 
    15e0:	48 8d 3d 42 2a 00 00 	lea    0x2a42(%rip),%rdi        # 4029 <_IO_stdin_used+0x29>
    15e7:	e8 84 fb ff ff       	call   1170 <puts@plt>
    15ec:	48 89 d8             	mov    %rbx,%rax
    15ef:	5b                   	pop    %rbx
    15f0:	5d                   	pop    %rbp
    15f1:	4c 29 e0             	sub    %r12,%rax
    15f4:	41 5c                	pop    %r12
    15f6:	c3                   	ret    
    15f7:	66 0f 1f 84 00 00 00 	nopw   0x0(%rax,%rax,1)
    15fe:	00 00 
    1600:	48 8d 3d 3d 2a 00 00 	lea    0x2a3d(%rip),%rdi        # 4044 <_IO_stdin_used+0x44>
    1607:	e8 64 fb ff ff       	call   1170 <puts@plt>
    160c:	eb 87                	jmp    1595 <decrypt+0x45>
    160e:	66 90                	xchg   %ax,%ax

0000000000001610 <init>:
    1610:	f3 0f 1e fa          	endbr64 
    1614:	48 83 ec 08          	sub    $0x8,%rsp
    1618:	31 ff                	xor    %edi,%edi
    161a:	e8 c1 fb ff ff       	call   11e0 <time@plt>
    161f:	89 c7                	mov    %eax,%edi
    1621:	e8 9a fb ff ff       	call   11c0 <srand@plt>
    1626:	48 8d 05 13 5a 00 00 	lea    0x5a13(%rip),%rax        # 7040 <obuf>
    162d:	c7 80 00 00 00 01 00 	movl   $0x0,0x1000000(%rax)
    1634:	00 00 00 
    1637:	48 83 c4 08          	add    $0x8,%rsp
    163b:	c3                   	ret    
    163c:	0f 1f 40 00          	nopl   0x0(%rax)

0000000000001640 <gen_key>:
    1640:	f3 0f 1e fa          	endbr64 
    1644:	41 54                	push   %r12
    1646:	bf 10 00 00 00       	mov    $0x10,%edi
    164b:	55                   	push   %rbp
    164c:	53                   	push   %rbx
    164d:	e8 9e fb ff ff       	call   11f0 <malloc@plt>
    1652:	49 89 c4             	mov    %rax,%r12
    1655:	48 89 c3             	mov    %rax,%rbx
    1658:	48 8d 68 10          	lea    0x10(%rax),%rbp
    165c:	0f 1f 40 00          	nopl   0x0(%rax)
    1660:	e8 fb fb ff ff       	call   1260 <rand@plt>
    1665:	48 83 c3 01          	add    $0x1,%rbx
    1669:	88 43 ff             	mov    %al,-0x1(%rbx)
    166c:	48 39 eb             	cmp    %rbp,%rbx
    166f:	75 ef                	jne    1660 <gen_key+0x20>
    1671:	4c 89 e0             	mov    %r12,%rax
    1674:	5b                   	pop    %rbx
    1675:	5d                   	pop    %rbp
    1676:	41 5c                	pop    %r12
    1678:	c3                   	ret    
    1679:	0f 1f 80 00 00 00 00 	nopl   0x0(%rax)

0000000000001680 <cmphash>:
    1680:	f3 0f 1e fa          	endbr64 
    1684:	31 c0                	xor    %eax,%eax
    1686:	eb 12                	jmp    169a <cmphash+0x1a>
    1688:	0f 1f 84 00 00 00 00 	nopl   0x0(%rax,%rax,1)
    168f:	00 
    1690:	48 83 c0 01          	add    $0x1,%rax
    1694:	48 83 f8 14          	cmp    $0x14,%rax
    1698:	74 16                	je     16b0 <cmphash+0x30>
    169a:	0f b6 14 06          	movzbl (%rsi,%rax,1),%edx
    169e:	38 14 07             	cmp    %dl,(%rdi,%rax,1)
    16a1:	74 ed                	je     1690 <cmphash+0x10>
    16a3:	b8 01 00 00 00       	mov    $0x1,%eax
    16a8:	c3                   	ret    
    16a9:	0f 1f 80 00 00 00 00 	nopl   0x0(%rax)
    16b0:	31 c0                	xor    %eax,%eax
    16b2:	c3                   	ret    
    16b3:	66 66 2e 0f 1f 84 00 	data16 cs nopw 0x0(%rax,%rax,1)
    16ba:	00 00 00 00 
    16be:	66 90                	xchg   %ax,%ax

00000000000016c0 <enc>:
    16c0:	f3 0f 1e fa          	endbr64 
    16c4:	41 57                	push   %r15
    16c6:	49 89 f7             	mov    %rsi,%r15
    16c9:	be 10 00 00 00       	mov    $0x10,%esi
    16ce:	41 56                	push   %r14
    16d0:	4c 8d 35 69 59 00 00 	lea    0x5969(%rip),%r14        # 7040 <obuf>
    16d7:	41 55                	push   %r13
    16d9:	4c 8d 2d 80 59 00 01 	lea    0x1005980(%rip),%r13        # 1007060 <ibuf>
    16e0:	41 54                	push   %r12
    16e2:	49 89 d4             	mov    %rdx,%r12
    16e5:	55                   	push   %rbp
    16e6:	53                   	push   %rbx
    16e7:	48 89 fb             	mov    %rdi,%rbx
    16ea:	48 83 ec 48          	sub    $0x48,%rsp
    16ee:	48 89 7c 24 08       	mov    %rdi,0x8(%rsp)
    16f3:	48 89 d7             	mov    %rdx,%rdi
    16f6:	64 48 8b 04 25 28 00 	mov    %fs:0x28,%rax
    16fd:	00 00 
    16ff:	48 89 44 24 38       	mov    %rax,0x38(%rsp)
    1704:	31 c0                	xor    %eax,%eax
    1706:	e8 a5 08 00 00       	call   1fb0 <getsha1s>
    170b:	4c 89 f9             	mov    %r15,%rcx
    170e:	ba 14 00 00 00       	mov    $0x14,%edx
    1713:	be 01 00 00 00       	mov    $0x1,%esi
    1718:	48 89 c5             	mov    %rax,%rbp
    171b:	48 89 c7             	mov    %rax,%rdi
    171e:	e8 2d fb ff ff       	call   1250 <fwrite@plt>
    1723:	4c 89 f9             	mov    %r15,%rcx
    1726:	ba 14 00 00 00       	mov    $0x14,%edx
    172b:	48 89 ef             	mov    %rbp,%rdi
    172e:	be 01 00 00 00       	mov    $0x1,%esi
    1733:	e8 18 fb ff ff       	call   1250 <fwrite@plt>
    1738:	48 89 ef             	mov    %rbp,%rdi
    173b:	48 8d 6c 24 20       	lea    0x20(%rsp),%rbp
    1740:	e8 1b fa ff ff       	call   1160 <free@plt>
    1745:	4c 89 f9             	mov    %r15,%rcx
    1748:	ba 01 00 00 00       	mov    $0x1,%edx
    174d:	be 01 00 00 00       	mov    $0x1,%esi
    1752:	48 8d 7c 24 1e       	lea    0x1e(%rsp),%rdi
    1757:	c6 44 24 1e 00       	movb   $0x0,0x1e(%rsp)
    175c:	e8 ef fa ff ff       	call   1250 <fwrite@plt>
    1761:	4c 89 e7             	mov    %r12,%rdi
    1764:	e8 97 0b 00 00       	call   2300 <initgen>
    1769:	4c 89 ee             	mov    %r13,%rsi
    176c:	48 89 df             	mov    %rbx,%rdi
    176f:	31 db                	xor    %ebx,%ebx
    1771:	e8 9a 21 00 00       	call   3910 <load_buffer>
    1776:	48 8d 3d f6 28 00 00 	lea    0x28f6(%rip),%rdi        # 4073 <_IO_stdin_used+0x73>
    177d:	e8 ee f9 ff ff       	call   1170 <puts@plt>
    1782:	48 8d 35 fc 28 00 00 	lea    0x28fc(%rip),%rsi        # 4085 <_IO_stdin_used+0x85>
    1789:	bf 01 00 00 00       	mov    $0x1,%edi
    178e:	31 c0                	xor    %eax,%eax
    1790:	e8 8b fa ff ff       	call   1220 <__printf_chk@plt>
    1795:	48 8b 3d 84 58 00 00 	mov    0x5884(%rip),%rdi        # 7020 <stdout@GLIBC_2.2.5>
    179c:	e8 5f fa ff ff       	call   1200 <fflush@plt>
    17a1:	b8 01 00 00 00       	mov    $0x1,%eax
    17a6:	c7 44 24 04 00 00 00 	movl   $0x0,0x4(%rsp)
    17ad:	00 
    17ae:	66 89 44 24 02       	mov    %ax,0x2(%rsp)
    17b3:	0f 1f 44 00 00       	nopl   0x0(%rax,%rax,1)
    17b8:	89 df                	mov    %ebx,%edi
    17ba:	4c 89 ea             	mov    %r13,%rdx
    17bd:	48 89 ee             	mov    %rbp,%rsi
    17c0:	41 89 dc             	mov    %ebx,%r12d
    17c3:	e8 88 21 00 00       	call   3950 <wread_buffer>
    17c8:	83 c3 01             	add    $0x1,%ebx
    17cb:	88 44 24 1f          	mov    %al,0x1f(%rsp)
    17cf:	3c ff                	cmp    $0xff,%al
    17d1:	74 6d                	je     1840 <enc+0x180>
    17d3:	48 89 ef             	mov    %rbp,%rdi
    17d6:	e8 f5 0f 00 00       	call   27d0 <runaes_128bit>
    17db:	4c 89 f2             	mov    %r14,%rdx
    17de:	48 89 ee             	mov    %rbp,%rsi
    17e1:	44 89 e7             	mov    %r12d,%edi
    17e4:	e8 c7 22 00 00       	call   3ab0 <wwrite_buffer>
    17e9:	80 7c 24 1f 10       	cmpb   $0x10,0x1f(%rsp)
    17ee:	0f 85 8c 00 00 00    	jne    1880 <enc+0x1c0>
    17f4:	66 83 44 24 02 01    	addw   $0x1,0x2(%rsp)
    17fa:	75 bc                	jne    17b8 <enc+0xf8>
    17fc:	83 44 24 04 01       	addl   $0x1,0x4(%rsp)
    1801:	44 8b 64 24 04       	mov    0x4(%rsp),%r12d
    1806:	48 8d 35 90 28 00 00 	lea    0x2890(%rip),%rsi        # 409d <_IO_stdin_used+0x9d>
    180d:	31 c0                	xor    %eax,%eax
    180f:	bf 01 00 00 00       	mov    $0x1,%edi
    1814:	e8 07 fa ff ff       	call   1220 <__printf_chk@plt>
    1819:	44 89 e2             	mov    %r12d,%edx
    181c:	bf 01 00 00 00       	mov    $0x1,%edi
    1821:	31 c0                	xor    %eax,%eax
    1823:	48 8d 35 7d 28 00 00 	lea    0x287d(%rip),%rsi        # 40a7 <_IO_stdin_used+0xa7>
    182a:	e8 f1 f9 ff ff       	call   1220 <__printf_chk@plt>
    182f:	48 8b 3d ea 57 00 00 	mov    0x57ea(%rip),%rdi        # 7020 <stdout@GLIBC_2.2.5>
    1836:	e8 c5 f9 ff ff       	call   1200 <fflush@plt>
    183b:	e9 78 ff ff ff       	jmp    17b8 <enc+0xf8>
    1840:	48 8b 7c 24 08       	mov    0x8(%rsp),%rdi
    1845:	4c 89 ee             	mov    %r13,%rsi
    1848:	e8 c3 20 00 00       	call   3910 <load_buffer>
    184d:	85 c0                	test   %eax,%eax
    184f:	74 2f                	je     1880 <enc+0x1c0>
    1851:	4c 89 f6             	mov    %r14,%rsi
    1854:	4c 89 ff             	mov    %r15,%rdi
    1857:	bb 01 00 00 00       	mov    $0x1,%ebx
    185c:	45 31 e4             	xor    %r12d,%r12d
    185f:	e8 1c 22 00 00       	call   3a80 <store_buffer>
    1864:	4c 89 ea             	mov    %r13,%rdx
    1867:	48 89 ee             	mov    %rbp,%rsi
    186a:	31 ff                	xor    %edi,%edi
    186c:	e8 df 20 00 00       	call   3950 <wread_buffer>
    1871:	88 44 24 1f          	mov    %al,0x1f(%rsp)
    1875:	e9 59 ff ff ff       	jmp    17d3 <enc+0x113>
    187a:	66 0f 1f 44 00 00    	nopw   0x0(%rax,%rax,1)
    1880:	4c 89 f6             	mov    %r14,%rsi
    1883:	4c 89 ff             	mov    %r15,%rdi
    1886:	e8 05 1f 00 00       	call   3790 <final_write>
    188b:	31 d2                	xor    %edx,%edx
    188d:	be 28 00 00 00       	mov    $0x28,%esi
    1892:	4c 89 ff             	mov    %r15,%rdi
    1895:	e8 76 f9 ff ff       	call   1210 <fseek@plt>
    189a:	4c 89 f9             	mov    %r15,%rcx
    189d:	ba 01 00 00 00       	mov    $0x1,%edx
    18a2:	be 01 00 00 00       	mov    $0x1,%esi
    18a7:	48 8d 7c 24 1f       	lea    0x1f(%rsp),%rdi
    18ac:	e8 9f f9 ff ff       	call   1250 <fwrite@plt>
    18b1:	48 8d 3d f8 27 00 00 	lea    0x27f8(%rip),%rdi        # 40b0 <_IO_stdin_used+0xb0>
    18b8:	e8 b3 f8 ff ff       	call   1170 <puts@plt>
    18bd:	48 8d 3d f9 27 00 00 	lea    0x27f9(%rip),%rdi        # 40bd <_IO_stdin_used+0xbd>
    18c4:	e8 a7 f8 ff ff       	call   1170 <puts@plt>
    18c9:	31 d2                	xor    %edx,%edx
    18cb:	be 29 00 00 00       	mov    $0x29,%esi
    18d0:	4c 89 ff             	mov    %r15,%rdi
    18d3:	e8 38 f9 ff ff       	call   1210 <fseek@plt>
    18d8:	4c 89 ff             	mov    %r15,%rdi
    18db:	e8 e0 04 00 00       	call   1dc0 <getsha1f>
    18e0:	31 d2                	xor    %edx,%edx
    18e2:	be 14 00 00 00       	mov    $0x14,%esi
    18e7:	4c 89 ff             	mov    %r15,%rdi
    18ea:	48 89 c5             	mov    %rax,%rbp
    18ed:	e8 1e f9 ff ff       	call   1210 <fseek@plt>
    18f2:	4c 89 f9             	mov    %r15,%rcx
    18f5:	ba 14 00 00 00       	mov    $0x14,%edx
    18fa:	48 89 ef             	mov    %rbp,%rdi
    18fd:	be 01 00 00 00       	mov    $0x1,%esi
    1902:	e8 49 f9 ff ff       	call   1250 <fwrite@plt>
    1907:	48 89 ef             	mov    %rbp,%rdi
    190a:	e8 51 f8 ff ff       	call   1160 <free@plt>
    190f:	48 8d 3d b6 27 00 00 	lea    0x27b6(%rip),%rdi        # 40cc <_IO_stdin_used+0xcc>
    1916:	e8 55 f8 ff ff       	call   1170 <puts@plt>
    191b:	48 8b 44 24 38       	mov    0x38(%rsp),%rax
    1920:	64 48 2b 04 25 28 00 	sub    %fs:0x28,%rax
    1927:	00 00 
    1929:	75 0f                	jne    193a <enc+0x27a>
    192b:	48 83 c4 48          	add    $0x48,%rsp
    192f:	5b                   	pop    %rbx
    1930:	5d                   	pop    %rbp
    1931:	41 5c                	pop    %r12
    1933:	41 5d                	pop    %r13
    1935:	41 5e                	pop    %r14
    1937:	41 5f                	pop    %r15
    1939:	c3                   	ret    
    193a:	e8 71 f8 ff ff       	call   11b0 <__stack_chk_fail@plt>
    193f:	90                   	nop

0000000000001940 <dec>:
    1940:	f3 0f 1e fa          	endbr64 
    1944:	41 57                	push   %r15
    1946:	41 56                	push   %r14
    1948:	41 55                	push   %r13
    194a:	49 89 d5             	mov    %rdx,%r13
    194d:	41 54                	push   %r12
    194f:	49 89 f4             	mov    %rsi,%r12
    1952:	55                   	push   %rbp
    1953:	53                   	push   %rbx
    1954:	48 89 fb             	mov    %rdi,%rbx
    1957:	48 8d 3d 7c 27 00 00 	lea    0x277c(%rip),%rdi        # 40da <_IO_stdin_used+0xda>
    195e:	48 83 ec 58          	sub    $0x58,%rsp
    1962:	64 48 8b 04 25 28 00 	mov    %fs:0x28,%rax
    1969:	00 00 
    196b:	48 89 44 24 48       	mov    %rax,0x48(%rsp)
    1970:	31 c0                	xor    %eax,%eax
    1972:	48 8d 6c 24 30       	lea    0x30(%rsp),%rbp
    1977:	e8 f4 f7 ff ff       	call   1170 <puts@plt>
    197c:	48 89 d9             	mov    %rbx,%rcx
    197f:	ba 14 00 00 00       	mov    $0x14,%edx
    1984:	48 89 ef             	mov    %rbp,%rdi
    1987:	be 01 00 00 00       	mov    $0x1,%esi
    198c:	e8 ef f7 ff ff       	call   1180 <fread@plt>
    1991:	83 f8 14             	cmp    $0x14,%eax
    1994:	74 2a                	je     19c0 <dec+0x80>
    1996:	b8 01 00 00 00       	mov    $0x1,%eax
    199b:	48 8b 54 24 48       	mov    0x48(%rsp),%rdx
    19a0:	64 48 2b 14 25 28 00 	sub    %fs:0x28,%rdx
    19a7:	00 00 
    19a9:	0f 85 50 02 00 00    	jne    1bff <dec+0x2bf>
    19af:	48 83 c4 58          	add    $0x58,%rsp
    19b3:	5b                   	pop    %rbx
    19b4:	5d                   	pop    %rbp
    19b5:	41 5c                	pop    %r12
    19b7:	41 5d                	pop    %r13
    19b9:	41 5e                	pop    %r14
    19bb:	41 5f                	pop    %r15
    19bd:	c3                   	ret    
    19be:	66 90                	xchg   %ax,%ax
    19c0:	4c 89 ef             	mov    %r13,%rdi
    19c3:	be 10 00 00 00       	mov    $0x10,%esi
    19c8:	e8 e3 05 00 00       	call   1fb0 <getsha1s>
    19cd:	31 d2                	xor    %edx,%edx
    19cf:	48 89 c7             	mov    %rax,%rdi
    19d2:	eb 0e                	jmp    19e2 <dec+0xa2>
    19d4:	0f 1f 40 00          	nopl   0x0(%rax)
    19d8:	48 83 c2 01          	add    $0x1,%rdx
    19dc:	48 83 fa 14          	cmp    $0x14,%rdx
    19e0:	74 1e                	je     1a00 <dec+0xc0>
    19e2:	0f b6 44 15 00       	movzbl 0x0(%rbp,%rdx,1),%eax
    19e7:	38 04 17             	cmp    %al,(%rdi,%rdx,1)
    19ea:	74 ec                	je     19d8 <dec+0x98>
    19ec:	e8 6f f7 ff ff       	call   1160 <free@plt>
    19f1:	b8 02 00 00 00       	mov    $0x2,%eax
    19f6:	eb a3                	jmp    199b <dec+0x5b>
    19f8:	0f 1f 84 00 00 00 00 	nopl   0x0(%rax,%rax,1)
    19ff:	00 
    1a00:	e8 5b f7 ff ff       	call   1160 <free@plt>
    1a05:	48 8d 3d 24 27 00 00 	lea    0x2724(%rip),%rdi        # 4130 <_IO_stdin_used+0x130>
    1a0c:	e8 5f f7 ff ff       	call   1170 <puts@plt>
    1a11:	48 89 d9             	mov    %rbx,%rcx
    1a14:	ba 14 00 00 00       	mov    $0x14,%edx
    1a19:	48 89 ef             	mov    %rbp,%rdi
    1a1c:	be 01 00 00 00       	mov    $0x1,%esi
    1a21:	e8 5a f7 ff ff       	call   1180 <fread@plt>
    1a26:	83 f8 14             	cmp    $0x14,%eax
    1a29:	0f 85 67 ff ff ff    	jne    1996 <dec+0x56>
    1a2f:	ba 01 00 00 00       	mov    $0x1,%edx
    1a34:	48 8d 7c 24 1f       	lea    0x1f(%rsp),%rdi
    1a39:	48 89 d9             	mov    %rbx,%rcx
    1a3c:	be 01 00 00 00       	mov    $0x1,%esi
    1a41:	e8 3a f7 ff ff       	call   1180 <fread@plt>
    1a46:	48 89 df             	mov    %rbx,%rdi
    1a49:	e8 72 03 00 00       	call   1dc0 <getsha1f>
    1a4e:	31 d2                	xor    %edx,%edx
    1a50:	48 89 c7             	mov    %rax,%rdi
    1a53:	eb 0d                	jmp    1a62 <dec+0x122>
    1a55:	0f 1f 00             	nopl   (%rax)
    1a58:	48 83 c2 01          	add    $0x1,%rdx
    1a5c:	48 83 fa 14          	cmp    $0x14,%rdx
    1a60:	74 1e                	je     1a80 <dec+0x140>
    1a62:	0f b6 44 15 00       	movzbl 0x0(%rbp,%rdx,1),%eax
    1a67:	38 04 17             	cmp    %al,(%rdi,%rdx,1)
    1a6a:	74 ec                	je     1a58 <dec+0x118>
    1a6c:	e8 ef f6 ff ff       	call   1160 <free@plt>
    1a71:	b8 03 00 00 00       	mov    $0x3,%eax
    1a76:	e9 20 ff ff ff       	jmp    199b <dec+0x5b>
    1a7b:	0f 1f 44 00 00       	nopl   0x0(%rax,%rax,1)
    1a80:	e8 db f6 ff ff       	call   1160 <free@plt>
    1a85:	48 8d 3d 6b 26 00 00 	lea    0x266b(%rip),%rdi        # 40f7 <_IO_stdin_used+0xf7>
    1a8c:	31 ed                	xor    %ebp,%ebp
    1a8e:	4c 8d 35 cb 55 00 01 	lea    0x10055cb(%rip),%r14        # 1007060 <ibuf>
    1a95:	e8 d6 f6 ff ff       	call   1170 <puts@plt>
    1a9a:	31 d2                	xor    %edx,%edx
    1a9c:	be 29 00 00 00       	mov    $0x29,%esi
    1aa1:	48 89 df             	mov    %rbx,%rdi
    1aa4:	e8 67 f7 ff ff       	call   1210 <fseek@plt>
    1aa9:	4c 89 ef             	mov    %r13,%rdi
    1aac:	4c 8d 3d 8d 55 00 00 	lea    0x558d(%rip),%r15        # 7040 <obuf>
    1ab3:	4c 8d 6c 24 20       	lea    0x20(%rsp),%r13
    1ab8:	e8 43 08 00 00       	call   2300 <initgen>
    1abd:	48 8d 3d 42 26 00 00 	lea    0x2642(%rip),%rdi        # 4106 <_IO_stdin_used+0x106>
    1ac4:	e8 a7 f6 ff ff       	call   1170 <puts@plt>
    1ac9:	48 8d 35 48 26 00 00 	lea    0x2648(%rip),%rsi        # 4118 <_IO_stdin_used+0x118>
    1ad0:	bf 01 00 00 00       	mov    $0x1,%edi
    1ad5:	31 c0                	xor    %eax,%eax
    1ad7:	e8 44 f7 ff ff       	call   1220 <__printf_chk@plt>
    1adc:	48 8b 3d 3d 55 00 00 	mov    0x553d(%rip),%rdi        # 7020 <stdout@GLIBC_2.2.5>
    1ae3:	e8 18 f7 ff ff       	call   1200 <fflush@plt>
    1ae8:	4c 89 f6             	mov    %r14,%rsi
    1aeb:	48 89 df             	mov    %rbx,%rdi
    1aee:	e8 1d 1e 00 00       	call   3910 <load_buffer>
    1af3:	b8 01 00 00 00       	mov    $0x1,%eax
    1af8:	c7 44 24 0c 00 00 00 	movl   $0x0,0xc(%rsp)
    1aff:	00 
    1b00:	66 89 44 24 0a       	mov    %ax,0xa(%rsp)
    1b05:	0f 1f 00             	nopl   (%rax)
    1b08:	4c 89 f2             	mov    %r14,%rdx
    1b0b:	4c 89 ee             	mov    %r13,%rsi
    1b0e:	89 ef                	mov    %ebp,%edi
    1b10:	e8 3b 1e 00 00       	call   3950 <wread_buffer>
    1b15:	3c ff                	cmp    $0xff,%al
    1b17:	74 77                	je     1b90 <dec+0x250>
    1b19:	4c 89 ef             	mov    %r13,%rdi
    1b1c:	e8 7f 11 00 00       	call   2ca0 <decaes_128bit>
    1b21:	4c 89 f7             	mov    %r14,%rdi
    1b24:	e8 d7 1b 00 00       	call   3700 <bufferover>
    1b29:	85 c0                	test   %eax,%eax
    1b2b:	0f 85 8f 00 00 00    	jne    1bc0 <dec+0x280>
    1b31:	89 ef                	mov    %ebp,%edi
    1b33:	4c 89 fa             	mov    %r15,%rdx
    1b36:	4c 89 ee             	mov    %r13,%rsi
    1b39:	83 c5 01             	add    $0x1,%ebp
    1b3c:	e8 6f 1f 00 00       	call   3ab0 <wwrite_buffer>
    1b41:	66 83 44 24 0a 01    	addw   $0x1,0xa(%rsp)
    1b47:	75 bf                	jne    1b08 <dec+0x1c8>
    1b49:	48 8d 35 4d 25 00 00 	lea    0x254d(%rip),%rsi        # 409d <_IO_stdin_used+0x9d>
    1b50:	bf 01 00 00 00       	mov    $0x1,%edi
    1b55:	31 c0                	xor    %eax,%eax
    1b57:	83 44 24 0c 01       	addl   $0x1,0xc(%rsp)
    1b5c:	e8 bf f6 ff ff       	call   1220 <__printf_chk@plt>
    1b61:	8b 54 24 0c          	mov    0xc(%rsp),%edx
    1b65:	bf 01 00 00 00       	mov    $0x1,%edi
    1b6a:	31 c0                	xor    %eax,%eax
    1b6c:	48 8d 35 34 25 00 00 	lea    0x2534(%rip),%rsi        # 40a7 <_IO_stdin_used+0xa7>
    1b73:	e8 a8 f6 ff ff       	call   1220 <__printf_chk@plt>
    1b78:	48 8b 3d a1 54 00 00 	mov    0x54a1(%rip),%rdi        # 7020 <stdout@GLIBC_2.2.5>
    1b7f:	e8 7c f6 ff ff       	call   1200 <fflush@plt>
    1b84:	eb 82                	jmp    1b08 <dec+0x1c8>
    1b86:	66 2e 0f 1f 84 00 00 	cs nopw 0x0(%rax,%rax,1)
    1b8d:	00 00 00 
    1b90:	4c 89 f6             	mov    %r14,%rsi
    1b93:	48 89 df             	mov    %rbx,%rdi
    1b96:	e8 75 1d 00 00       	call   3910 <load_buffer>
    1b9b:	4c 89 fe             	mov    %r15,%rsi
    1b9e:	4c 89 e7             	mov    %r12,%rdi
    1ba1:	85 c0                	test   %eax,%eax
    1ba3:	74 21                	je     1bc6 <dec+0x286>
    1ba5:	e8 d6 1e 00 00       	call   3a80 <store_buffer>
    1baa:	4c 89 f2             	mov    %r14,%rdx
    1bad:	4c 89 ee             	mov    %r13,%rsi
    1bb0:	31 ff                	xor    %edi,%edi
    1bb2:	e8 99 1d 00 00       	call   3950 <wread_buffer>
    1bb7:	31 ed                	xor    %ebp,%ebp
    1bb9:	e9 5b ff ff ff       	jmp    1b19 <dec+0x1d9>
    1bbe:	66 90                	xchg   %ax,%ax
    1bc0:	4c 89 fe             	mov    %r15,%rsi
    1bc3:	4c 89 e7             	mov    %r12,%rdi
    1bc6:	e8 c5 1b 00 00       	call   3790 <final_write>
    1bcb:	0f b6 54 24 1f       	movzbl 0x1f(%rsp),%edx
    1bd0:	4c 89 e1             	mov    %r12,%rcx
    1bd3:	4c 89 ef             	mov    %r13,%rdi
    1bd6:	be 01 00 00 00       	mov    $0x1,%esi
    1bdb:	e8 70 f6 ff ff       	call   1250 <fwrite@plt>
    1be0:	48 8d 3d 03 25 00 00 	lea    0x2503(%rip),%rdi        # 40ea <_IO_stdin_used+0xea>
    1be7:	e8 84 f5 ff ff       	call   1170 <puts@plt>
    1bec:	48 8d 3d d9 24 00 00 	lea    0x24d9(%rip),%rdi        # 40cc <_IO_stdin_used+0xcc>
    1bf3:	e8 78 f5 ff ff       	call   1170 <puts@plt>
    1bf8:	31 c0                	xor    %eax,%eax
    1bfa:	e9 9c fd ff ff       	jmp    199b <dec+0x5b>
    1bff:	e8 ac f5 ff ff       	call   11b0 <__stack_chk_fail@plt>
    1c04:	66 2e 0f 1f 84 00 00 	cs nopw 0x0(%rax,%rax,1)
    1c0b:	00 00 00 
    1c0e:	66 90                	xchg   %ax,%ax

0000000000001c10 <getwdata>:
    1c10:	f3 0f 1e fa          	endbr64 
    1c14:	49 89 f0             	mov    %rsi,%r8
    1c17:	48 89 f2             	mov    %rsi,%rdx
    1c1a:	31 c9                	xor    %ecx,%ecx
    1c1c:	eb 20                	jmp    1c3e <getwdata+0x2e>
    1c1e:	66 90                	xchg   %ax,%ax
    1c20:	8b 42 f4             	mov    -0xc(%rdx),%eax
    1c23:	33 42 e0             	xor    -0x20(%rdx),%eax
    1c26:	33 42 c8             	xor    -0x38(%rdx),%eax
    1c29:	33 42 c0             	xor    -0x40(%rdx),%eax
    1c2c:	d1 c0                	rol    %eax
    1c2e:	89 02                	mov    %eax,(%rdx)
    1c30:	48 83 f9 4f          	cmp    $0x4f,%rcx
    1c34:	74 5a                	je     1c90 <getwdata+0x80>
    1c36:	48 83 c1 01          	add    $0x1,%rcx
    1c3a:	48 83 c2 04          	add    $0x4,%rdx
    1c3e:	48 83 f9 0f          	cmp    $0xf,%rcx
    1c42:	77 dc                	ja     1c20 <getwdata+0x10>
    1c44:	8d 34 8d 00 00 00 00 	lea    0x0(,%rcx,4),%esi
    1c4b:	44 0f b6 0c 8f       	movzbl (%rdi,%rcx,4),%r9d
    1c50:	89 f0                	mov    %esi,%eax
    1c52:	83 c8 03             	or     $0x3,%eax
    1c55:	41 c1 e1 18          	shl    $0x18,%r9d
    1c59:	48 98                	cltq   
    1c5b:	0f b6 04 07          	movzbl (%rdi,%rax,1),%eax
    1c5f:	44 09 c8             	or     %r9d,%eax
    1c62:	41 89 f1             	mov    %esi,%r9d
    1c65:	83 ce 01             	or     $0x1,%esi
    1c68:	41 83 c9 02          	or     $0x2,%r9d
    1c6c:	48 63 f6             	movslq %esi,%rsi
    1c6f:	4d 63 c9             	movslq %r9d,%r9
    1c72:	0f b6 34 37          	movzbl (%rdi,%rsi,1),%esi
    1c76:	46 0f b6 0c 0f       	movzbl (%rdi,%r9,1),%r9d
    1c7b:	c1 e6 10             	shl    $0x10,%esi
    1c7e:	41 c1 e1 08          	shl    $0x8,%r9d
    1c82:	44 09 c8             	or     %r9d,%eax
    1c85:	09 f0                	or     %esi,%eax
    1c87:	89 02                	mov    %eax,(%rdx)
    1c89:	eb ab                	jmp    1c36 <getwdata+0x26>
    1c8b:	0f 1f 44 00 00       	nopl   0x0(%rax,%rax,1)
    1c90:	4c 89 c0             	mov    %r8,%rax
    1c93:	c3                   	ret    
    1c94:	66 66 2e 0f 1f 84 00 	data16 cs nopw 0x0(%rax,%rax,1)
    1c9b:	00 00 00 00 
    1c9f:	90                   	nop

0000000000001ca0 <gethash>:
    1ca0:	f3 0f 1e fa          	endbr64 
    1ca4:	41 54                	push   %r12
    1ca6:	49 89 fb             	mov    %rdi,%r11
    1ca9:	49 89 f2             	mov    %rsi,%r10
    1cac:	31 d2                	xor    %edx,%edx
    1cae:	55                   	push   %rbp
    1caf:	53                   	push   %rbx
    1cb0:	bb cd cc cc cc       	mov    $0xcccccccd,%ebx
    1cb5:	48 83 ec 20          	sub    $0x20,%rsp
    1cb9:	f3 0f 6f 07          	movdqu (%rdi),%xmm0
    1cbd:	44 8b 4f 10          	mov    0x10(%rdi),%r9d
    1cc1:	64 48 8b 04 25 28 00 	mov    %fs:0x28,%rax
    1cc8:	00 00 
    1cca:	48 89 44 24 18       	mov    %rax,0x18(%rsp)
    1ccf:	31 c0                	xor    %eax,%eax
    1cd1:	0f 29 04 24          	movaps %xmm0,(%rsp)
    1cd5:	44 8b 44 24 04       	mov    0x4(%rsp),%r8d
    1cda:	8b 74 24 08          	mov    0x8(%rsp),%esi
    1cde:	8b 4c 24 0c          	mov    0xc(%rsp),%ecx
    1ce2:	8b 3c 24             	mov    (%rsp),%edi
    1ce5:	44 89 4c 24 10       	mov    %r9d,0x10(%rsp)
    1cea:	eb 46                	jmp    1d32 <gethash+0x92>
    1cec:	0f 1f 40 00          	nopl   0x0(%rax)
    1cf0:	83 f8 01             	cmp    $0x1,%eax
    1cf3:	74 7b                	je     1d70 <gethash+0xd0>
    1cf5:	89 f5                	mov    %esi,%ebp
    1cf7:	41 bc 99 79 82 5a    	mov    $0x5a827999,%r12d
    1cfd:	31 cd                	xor    %ecx,%ebp
    1cff:	44 21 c5             	and    %r8d,%ebp
    1d02:	31 cd                	xor    %ecx,%ebp
    1d04:	89 f8                	mov    %edi,%eax
    1d06:	41 c1 c8 02          	ror    $0x2,%r8d
    1d0a:	c1 c0 05             	rol    $0x5,%eax
    1d0d:	41 03 04 92          	add    (%r10,%rdx,4),%eax
    1d11:	48 83 c2 01          	add    $0x1,%rdx
    1d15:	01 e8                	add    %ebp,%eax
    1d17:	44 89 c5             	mov    %r8d,%ebp
    1d1a:	41 89 f8             	mov    %edi,%r8d
    1d1d:	44 01 e0             	add    %r12d,%eax
    1d20:	44 01 c8             	add    %r9d,%eax
    1d23:	41 89 c9             	mov    %ecx,%r9d
    1d26:	48 83 fa 50          	cmp    $0x50,%rdx
    1d2a:	74 54                	je     1d80 <gethash+0xe0>
    1d2c:	89 f1                	mov    %esi,%ecx
    1d2e:	89 c7                	mov    %eax,%edi
    1d30:	89 ee                	mov    %ebp,%esi
    1d32:	89 d0                	mov    %edx,%eax
    1d34:	48 0f af c3          	imul   %rbx,%rax
    1d38:	48 c1 e8 24          	shr    $0x24,%rax
    1d3c:	83 f8 02             	cmp    $0x2,%eax
    1d3f:	74 17                	je     1d58 <gethash+0xb8>
    1d41:	83 f8 03             	cmp    $0x3,%eax
    1d44:	75 aa                	jne    1cf0 <gethash+0x50>
    1d46:	44 89 c5             	mov    %r8d,%ebp
    1d49:	41 bc d6 c1 62 ca    	mov    $0xca62c1d6,%r12d
    1d4f:	31 f5                	xor    %esi,%ebp
    1d51:	31 cd                	xor    %ecx,%ebp
    1d53:	eb af                	jmp    1d04 <gethash+0x64>
    1d55:	0f 1f 00             	nopl   (%rax)
    1d58:	89 f5                	mov    %esi,%ebp
    1d5a:	89 f0                	mov    %esi,%eax
    1d5c:	41 bc dc bc 1b 8f    	mov    $0x8f1bbcdc,%r12d
    1d62:	09 cd                	or     %ecx,%ebp
    1d64:	21 c8                	and    %ecx,%eax
    1d66:	44 21 c5             	and    %r8d,%ebp
    1d69:	09 c5                	or     %eax,%ebp
    1d6b:	eb 97                	jmp    1d04 <gethash+0x64>
    1d6d:	0f 1f 00             	nopl   (%rax)
    1d70:	44 89 c5             	mov    %r8d,%ebp
    1d73:	41 bc a1 eb d9 6e    	mov    $0x6ed9eba1,%r12d
    1d79:	31 f5                	xor    %esi,%ebp
    1d7b:	31 cd                	xor    %ecx,%ebp
    1d7d:	eb 85                	jmp    1d04 <gethash+0x64>
    1d7f:	90                   	nop
    1d80:	41 01 03             	add    %eax,(%r11)
    1d83:	41 01 7b 04          	add    %edi,0x4(%r11)
    1d87:	41 01 6b 08          	add    %ebp,0x8(%r11)
    1d8b:	41 01 73 0c          	add    %esi,0xc(%r11)
    1d8f:	41 01 4b 10          	add    %ecx,0x10(%r11)
    1d93:	48 8b 44 24 18       	mov    0x18(%rsp),%rax
    1d98:	64 48 2b 04 25 28 00 	sub    %fs:0x28,%rax
    1d9f:	00 00 
    1da1:	75 09                	jne    1dac <gethash+0x10c>
    1da3:	48 83 c4 20          	add    $0x20,%rsp
    1da7:	5b                   	pop    %rbx
    1da8:	5d                   	pop    %rbp
    1da9:	41 5c                	pop    %r12
    1dab:	c3                   	ret    
    1dac:	e8 ff f3 ff ff       	call   11b0 <__stack_chk_fail@plt>
    1db1:	66 66 2e 0f 1f 84 00 	data16 cs nopw 0x0(%rax,%rax,1)
    1db8:	00 00 00 00 
    1dbc:	0f 1f 40 00          	nopl   0x0(%rax)

0000000000001dc0 <getsha1f>:
    1dc0:	f3 0f 1e fa          	endbr64 
    1dc4:	41 57                	push   %r15
    1dc6:	41 56                	push   %r14
    1dc8:	41 55                	push   %r13
    1dca:	41 54                	push   %r12
    1dcc:	55                   	push   %rbp
    1dcd:	53                   	push   %rbx
    1dce:	48 81 ec a8 01 00 00 	sub    $0x1a8,%rsp
    1dd5:	64 48 8b 04 25 28 00 	mov    %fs:0x28,%rax
    1ddc:	00 00 
    1dde:	48 89 84 24 98 01 00 	mov    %rax,0x198(%rsp)
    1de5:	00 
    1de6:	31 c0                	xor    %eax,%eax
    1de8:	48 85 ff             	test   %rdi,%rdi
    1deb:	0f 84 b5 01 00 00    	je     1fa6 <getsha1f+0x1e6>
    1df1:	49 89 fd             	mov    %rdi,%r13
    1df4:	bf 14 00 00 00       	mov    $0x14,%edi
    1df9:	bb 01 00 00 00       	mov    $0x1,%ebx
    1dfe:	e8 ed f3 ff ff       	call   11f0 <malloc@plt>
    1e03:	4c 8d b4 24 50 01 00 	lea    0x150(%rsp),%r14
    1e0a:	00 
    1e0b:	c7 44 24 0c 00 00 00 	movl   $0x0,0xc(%rsp)
    1e12:	00 
    1e13:	4c 8d 3d 66 52 00 02 	lea    0x2005266(%rip),%r15        # 2007080 <ibuf64>
    1e1a:	48 89 c5             	mov    %rax,%rbp
    1e1d:	4c 8d 64 24 10       	lea    0x10(%rsp),%r12
    1e22:	48 b8 01 23 45 67 89 	movabs $0xefcdab8967452301,%rax
    1e29:	ab cd ef 
    1e2c:	48 89 45 00          	mov    %rax,0x0(%rbp)
    1e30:	48 b8 fe dc ba 98 76 	movabs $0x1032547698badcfe,%rax
    1e37:	54 32 10 
    1e3a:	48 89 45 08          	mov    %rax,0x8(%rbp)
    1e3e:	c7 45 10 f0 e1 d2 c3 	movl   $0xc3d2e1f0,0x10(%rbp)
    1e45:	eb 40                	jmp    1e87 <getsha1f+0xc7>
    1e47:	66 0f 1f 84 00 00 00 	nopw   0x0(%rax,%rax,1)
    1e4e:	00 00 
    1e50:	89 c2                	mov    %eax,%edx
    1e52:	c6 84 14 50 01 00 00 	movb   $0x80,0x150(%rsp,%rdx,1)
    1e59:	80 
    1e5a:	8d 50 01             	lea    0x1(%rax),%edx
    1e5d:	83 fa 37             	cmp    $0x37,%edx
    1e60:	0f 86 7d 00 00 00    	jbe    1ee3 <getsha1f+0x123>
    1e66:	4c 89 e6             	mov    %r12,%rsi
    1e69:	4c 89 f7             	mov    %r14,%rdi
    1e6c:	e8 9f fd ff ff       	call   1c10 <getwdata>
    1e71:	4c 89 e6             	mov    %r12,%rsi
    1e74:	48 89 ef             	mov    %rbp,%rdi
    1e77:	e8 24 fe ff ff       	call   1ca0 <gethash>
    1e7c:	c7 44 24 0c 01 00 00 	movl   $0x1,0xc(%rsp)
    1e83:	00 
    1e84:	83 c3 01             	add    $0x1,%ebx
    1e87:	66 0f ef c0          	pxor   %xmm0,%xmm0
    1e8b:	8d 43 ff             	lea    -0x1(%rbx),%eax
    1e8e:	4c 89 fa             	mov    %r15,%rdx
    1e91:	4c 89 f6             	mov    %r14,%rsi
    1e94:	4c 89 ef             	mov    %r13,%rdi
    1e97:	89 44 24 08          	mov    %eax,0x8(%rsp)
    1e9b:	41 0f 29 06          	movaps %xmm0,(%r14)
    1e9f:	41 0f 29 46 10       	movaps %xmm0,0x10(%r14)
    1ea4:	41 0f 29 46 20       	movaps %xmm0,0x20(%r14)
    1ea9:	41 0f 29 46 30       	movaps %xmm0,0x30(%r14)
    1eae:	e8 fd 18 00 00       	call   37b0 <read_buffer64>
    1eb3:	83 f8 40             	cmp    $0x40,%eax
    1eb6:	74 08                	je     1ec0 <getsha1f+0x100>
    1eb8:	8b 54 24 0c          	mov    0xc(%rsp),%edx
    1ebc:	85 d2                	test   %edx,%edx
    1ebe:	74 90                	je     1e50 <getsha1f+0x90>
    1ec0:	83 f8 37             	cmp    $0x37,%eax
    1ec3:	76 1b                	jbe    1ee0 <getsha1f+0x120>
    1ec5:	4c 89 e6             	mov    %r12,%rsi
    1ec8:	4c 89 f7             	mov    %r14,%rdi
    1ecb:	e8 40 fd ff ff       	call   1c10 <getwdata>
    1ed0:	4c 89 e6             	mov    %r12,%rsi
    1ed3:	48 89 ef             	mov    %rbp,%rdi
    1ed6:	e8 c5 fd ff ff       	call   1ca0 <gethash>
    1edb:	eb a7                	jmp    1e84 <getsha1f+0xc4>
    1edd:	0f 1f 00             	nopl   (%rax)
    1ee0:	83 e8 01             	sub    $0x1,%eax
    1ee3:	8b 54 24 08          	mov    0x8(%rsp),%edx
    1ee7:	c1 e0 03             	shl    $0x3,%eax
    1eea:	b9 38 00 00 00       	mov    $0x38,%ecx
    1eef:	48 8d bc 24 90 01 00 	lea    0x190(%rsp),%rdi
    1ef6:	00 
    1ef7:	48 c1 e2 09          	shl    $0x9,%rdx
    1efb:	48 01 c2             	add    %rax,%rdx
    1efe:	48 8d 84 24 88 01 00 	lea    0x188(%rsp),%rax
    1f05:	00 
    1f06:	66 2e 0f 1f 84 00 00 	cs nopw 0x0(%rax,%rax,1)
    1f0d:	00 00 00 
    1f10:	48 89 d6             	mov    %rdx,%rsi
    1f13:	48 83 c0 01          	add    $0x1,%rax
    1f17:	48 d3 ee             	shr    %cl,%rsi
    1f1a:	83 e9 08             	sub    $0x8,%ecx
    1f1d:	40 88 70 ff          	mov    %sil,-0x1(%rax)
    1f21:	48 39 c7             	cmp    %rax,%rdi
    1f24:	75 ea                	jne    1f10 <getsha1f+0x150>
    1f26:	4c 89 e6             	mov    %r12,%rsi
    1f29:	4c 89 f7             	mov    %r14,%rdi
    1f2c:	e8 df fc ff ff       	call   1c10 <getwdata>
    1f31:	4c 89 e6             	mov    %r12,%rsi
    1f34:	48 89 ef             	mov    %rbp,%rdi
    1f37:	e8 64 fd ff ff       	call   1ca0 <gethash>
    1f3c:	bf 14 00 00 00       	mov    $0x14,%edi
    1f41:	e8 aa f2 ff ff       	call   11f0 <malloc@plt>
    1f46:	31 d2                	xor    %edx,%edx
    1f48:	49 89 c4             	mov    %rax,%r12
    1f4b:	0f 1f 44 00 00       	nopl   0x0(%rax,%rax,1)
    1f50:	89 d6                	mov    %edx,%esi
    1f52:	89 d1                	mov    %edx,%ecx
    1f54:	c1 fe 02             	sar    $0x2,%esi
    1f57:	f7 d1                	not    %ecx
    1f59:	48 63 f6             	movslq %esi,%rsi
    1f5c:	83 e1 03             	and    $0x3,%ecx
    1f5f:	8b 74 b5 00          	mov    0x0(%rbp,%rsi,4),%esi
    1f63:	c1 e1 03             	shl    $0x3,%ecx
    1f66:	d3 ee                	shr    %cl,%esi
    1f68:	41 88 34 14          	mov    %sil,(%r12,%rdx,1)
    1f6c:	48 83 c2 01          	add    $0x1,%rdx
    1f70:	48 83 fa 14          	cmp    $0x14,%rdx
    1f74:	75 da                	jne    1f50 <getsha1f+0x190>
    1f76:	48 89 ef             	mov    %rbp,%rdi
    1f79:	e8 e2 f1 ff ff       	call   1160 <free@plt>
    1f7e:	48 8b 84 24 98 01 00 	mov    0x198(%rsp),%rax
    1f85:	00 
    1f86:	64 48 2b 04 25 28 00 	sub    %fs:0x28,%rax
    1f8d:	00 00 
    1f8f:	75 1a                	jne    1fab <getsha1f+0x1eb>
    1f91:	48 81 c4 a8 01 00 00 	add    $0x1a8,%rsp
    1f98:	4c 89 e0             	mov    %r12,%rax
    1f9b:	5b                   	pop    %rbx
    1f9c:	5d                   	pop    %rbp
    1f9d:	41 5c                	pop    %r12
    1f9f:	41 5d                	pop    %r13
    1fa1:	41 5e                	pop    %r14
    1fa3:	41 5f                	pop    %r15
    1fa5:	c3                   	ret    
    1fa6:	45 31 e4             	xor    %r12d,%r12d
    1fa9:	eb d3                	jmp    1f7e <getsha1f+0x1be>
    1fab:	e8 00 f2 ff ff       	call   11b0 <__stack_chk_fail@plt>

0000000000001fb0 <getsha1s>:
    1fb0:	f3 0f 1e fa          	endbr64 
    1fb4:	41 57                	push   %r15
    1fb6:	41 56                	push   %r14
    1fb8:	41 55                	push   %r13
    1fba:	41 54                	push   %r12
    1fbc:	55                   	push   %rbp
    1fbd:	48 89 f5             	mov    %rsi,%rbp
    1fc0:	53                   	push   %rbx
    1fc1:	4c 8d 24 ed 00 00 00 	lea    0x0(,%rbp,8),%r12
    1fc8:	00 
    1fc9:	4c 89 e3             	mov    %r12,%rbx
    1fcc:	48 c1 eb 09          	shr    $0x9,%rbx
    1fd0:	48 81 ec c8 01 00 00 	sub    $0x1c8,%rsp
    1fd7:	48 89 7c 24 20       	mov    %rdi,0x20(%rsp)
    1fdc:	bf 14 00 00 00       	mov    $0x14,%edi
    1fe1:	64 48 8b 04 25 28 00 	mov    %fs:0x28,%rax
    1fe8:	00 00 
    1fea:	48 89 84 24 b8 01 00 	mov    %rax,0x1b8(%rsp)
    1ff1:	00 
    1ff2:	31 c0                	xor    %eax,%eax
    1ff4:	e8 f7 f1 ff ff       	call   11f0 <malloc@plt>
    1ff9:	48 8d 7b 01          	lea    0x1(%rbx),%rdi
    1ffd:	48 89 5c 24 10       	mov    %rbx,0x10(%rsp)
    2002:	49 89 c7             	mov    %rax,%r15
    2005:	48 89 7c 24 08       	mov    %rdi,0x8(%rsp)
    200a:	48 b8 01 23 45 67 89 	movabs $0xefcdab8967452301,%rax
    2011:	ab cd ef 
    2014:	49 89 07             	mov    %rax,(%r15)
    2017:	48 b8 fe dc ba 98 76 	movabs $0x1032547698badcfe,%rax
    201e:	54 32 10 
    2021:	49 89 47 08          	mov    %rax,0x8(%r15)
    2025:	49 8d 44 24 08       	lea    0x8(%r12),%rax
    202a:	25 ff 01 00 00       	and    $0x1ff,%eax
    202f:	41 c7 47 10 f0 e1 d2 	movl   $0xc3d2e1f0,0x10(%r15)
    2036:	c3 
    2037:	48 3d bf 01 00 00    	cmp    $0x1bf,%rax
    203d:	76 15                	jbe    2054 <getsha1s+0xa4>
    203f:	48 89 d8             	mov    %rbx,%rax
    2042:	48 8d 7b 02          	lea    0x2(%rbx),%rdi
    2046:	48 83 c0 01          	add    $0x1,%rax
    204a:	48 89 7c 24 08       	mov    %rdi,0x8(%rsp)
    204f:	48 89 44 24 10       	mov    %rax,0x10(%rsp)
    2054:	c7 44 24 18 00 00 00 	movl   $0x0,0x18(%rsp)
    205b:	00 
    205c:	45 31 ed             	xor    %r13d,%r13d
    205f:	45 31 db             	xor    %r11d,%r11d
    2062:	4c 8d b4 24 70 01 00 	lea    0x170(%rsp),%r14
    2069:	00 
    206a:	48 8d 5c 24 30       	lea    0x30(%rsp),%rbx
    206f:	eb 7e                	jmp    20ef <getsha1s+0x13f>
    2071:	0f 1f 80 00 00 00 00 	nopl   0x0(%rax)
    2078:	48 89 ea             	mov    %rbp,%rdx
    207b:	48 29 f2             	sub    %rsi,%rdx
    207e:	48 03 74 24 20       	add    0x20(%rsp),%rsi
    2083:	48 83 fa 3f          	cmp    $0x3f,%rdx
    2087:	0f 86 db 00 00 00    	jbe    2168 <getsha1s+0x1b8>
    208d:	f3 0f 6f 0e          	movdqu (%rsi),%xmm1
    2091:	f3 0f 6f 56 10       	movdqu 0x10(%rsi),%xmm2
    2096:	f3 0f 6f 5e 20       	movdqu 0x20(%rsi),%xmm3
    209b:	f3 0f 6f 66 30       	movdqu 0x30(%rsi),%xmm4
    20a0:	0f 29 8c 24 70 01 00 	movaps %xmm1,0x170(%rsp)
    20a7:	00 
    20a8:	0f 29 94 24 80 01 00 	movaps %xmm2,0x180(%rsp)
    20af:	00 
    20b0:	0f 29 9c 24 90 01 00 	movaps %xmm3,0x190(%rsp)
    20b7:	00 
    20b8:	0f 29 a4 24 a0 01 00 	movaps %xmm4,0x1a0(%rsp)
    20bf:	00 
    20c0:	4c 3b 5c 24 10       	cmp    0x10(%rsp),%r11
    20c5:	74 65                	je     212c <getsha1s+0x17c>
    20c7:	48 89 de             	mov    %rbx,%rsi
    20ca:	4c 89 f7             	mov    %r14,%rdi
    20cd:	e8 3e fb ff ff       	call   1c10 <getwdata>
    20d2:	48 89 de             	mov    %rbx,%rsi
    20d5:	4c 89 ff             	mov    %r15,%rdi
    20d8:	e8 c3 fb ff ff       	call   1ca0 <gethash>
    20dd:	45 8d 5d 01          	lea    0x1(%r13),%r11d
    20e1:	4d 89 dd             	mov    %r11,%r13
    20e4:	4c 3b 5c 24 08       	cmp    0x8(%rsp),%r11
    20e9:	0f 83 b1 00 00 00    	jae    21a0 <getsha1s+0x1f0>
    20ef:	44 89 ee             	mov    %r13d,%esi
    20f2:	66 0f ef c0          	pxor   %xmm0,%xmm0
    20f6:	c1 e6 06             	shl    $0x6,%esi
    20f9:	41 0f 29 06          	movaps %xmm0,(%r14)
    20fd:	41 0f 29 46 10       	movaps %xmm0,0x10(%r14)
    2102:	41 0f 29 46 20       	movaps %xmm0,0x20(%r14)
    2107:	41 0f 29 46 30       	movaps %xmm0,0x30(%r14)
    210c:	48 39 ee             	cmp    %rbp,%rsi
    210f:	0f 82 63 ff ff ff    	jb     2078 <getsha1s+0xc8>
    2115:	8b 44 24 18          	mov    0x18(%rsp),%eax
    2119:	85 c0                	test   %eax,%eax
    211b:	75 a3                	jne    20c0 <getsha1s+0x110>
    211d:	c6 84 24 70 01 00 00 	movb   $0x80,0x170(%rsp)
    2124:	80 
    2125:	4c 3b 5c 24 10       	cmp    0x10(%rsp),%r11
    212a:	75 9b                	jne    20c7 <getsha1s+0x117>
    212c:	48 8d 84 24 a8 01 00 	lea    0x1a8(%rsp),%rax
    2133:	00 
    2134:	48 8d b4 24 b0 01 00 	lea    0x1b0(%rsp),%rsi
    213b:	00 
    213c:	b9 38 00 00 00       	mov    $0x38,%ecx
    2141:	0f 1f 80 00 00 00 00 	nopl   0x0(%rax)
    2148:	4c 89 e2             	mov    %r12,%rdx
    214b:	48 83 c0 01          	add    $0x1,%rax
    214f:	48 d3 ea             	shr    %cl,%rdx
    2152:	83 e9 08             	sub    $0x8,%ecx
    2155:	88 50 ff             	mov    %dl,-0x1(%rax)
    2158:	48 39 c6             	cmp    %rax,%rsi
    215b:	75 eb                	jne    2148 <getsha1s+0x198>
    215d:	e9 65 ff ff ff       	jmp    20c7 <getsha1s+0x117>
    2162:	66 0f 1f 44 00 00    	nopw   0x0(%rax,%rax,1)
    2168:	b9 40 00 00 00       	mov    $0x40,%ecx
    216d:	4c 89 f7             	mov    %r14,%rdi
    2170:	4c 89 5c 24 28       	mov    %r11,0x28(%rsp)
    2175:	48 89 54 24 18       	mov    %rdx,0x18(%rsp)
    217a:	e8 51 f0 ff ff       	call   11d0 <__memcpy_chk@plt>
    217f:	48 8b 54 24 18       	mov    0x18(%rsp),%rdx
    2184:	4c 8b 5c 24 28       	mov    0x28(%rsp),%r11
    2189:	c7 44 24 18 01 00 00 	movl   $0x1,0x18(%rsp)
    2190:	00 
    2191:	c6 84 14 70 01 00 00 	movb   $0x80,0x170(%rsp,%rdx,1)
    2198:	80 
    2199:	e9 22 ff ff ff       	jmp    20c0 <getsha1s+0x110>
    219e:	66 90                	xchg   %ax,%ax
    21a0:	bf 14 00 00 00       	mov    $0x14,%edi
    21a5:	e8 46 f0 ff ff       	call   11f0 <malloc@plt>
    21aa:	31 d2                	xor    %edx,%edx
    21ac:	49 89 c4             	mov    %rax,%r12
    21af:	90                   	nop
    21b0:	89 d6                	mov    %edx,%esi
    21b2:	89 d1                	mov    %edx,%ecx
    21b4:	c1 fe 02             	sar    $0x2,%esi
    21b7:	f7 d1                	not    %ecx
    21b9:	48 63 f6             	movslq %esi,%rsi
    21bc:	83 e1 03             	and    $0x3,%ecx
    21bf:	41 8b 34 b7          	mov    (%r15,%rsi,4),%esi
    21c3:	c1 e1 03             	shl    $0x3,%ecx
    21c6:	d3 ee                	shr    %cl,%esi
    21c8:	41 88 34 14          	mov    %sil,(%r12,%rdx,1)
    21cc:	48 83 c2 01          	add    $0x1,%rdx
    21d0:	48 83 fa 14          	cmp    $0x14,%rdx
    21d4:	75 da                	jne    21b0 <getsha1s+0x200>
    21d6:	4c 89 ff             	mov    %r15,%rdi
    21d9:	e8 82 ef ff ff       	call   1160 <free@plt>
    21de:	48 8b 84 24 b8 01 00 	mov    0x1b8(%rsp),%rax
    21e5:	00 
    21e6:	64 48 2b 04 25 28 00 	sub    %fs:0x28,%rax
    21ed:	00 00 
    21ef:	75 15                	jne    2206 <getsha1s+0x256>
    21f1:	48 81 c4 c8 01 00 00 	add    $0x1c8,%rsp
    21f8:	4c 89 e0             	mov    %r12,%rax
    21fb:	5b                   	pop    %rbx
    21fc:	5d                   	pop    %rbp
    21fd:	41 5c                	pop    %r12
    21ff:	41 5d                	pop    %r13
    2201:	41 5e                	pop    %r14
    2203:	41 5f                	pop    %r15
    2205:	c3                   	ret    
    2206:	e8 a5 ef ff ff       	call   11b0 <__stack_chk_fail@plt>
    220b:	0f 1f 44 00 00       	nopl   0x0(%rax,%rax,1)

0000000000002210 <genkey>:
    2210:	f3 0f 1e fa          	endbr64 
    2214:	41 54                	push   %r12
    2216:	4c 8d 0d 23 22 00 00 	lea    0x2223(%rip),%r9        # 4440 <s_box>
    221d:	4c 8d 25 1c 23 00 00 	lea    0x231c(%rip),%r12        # 4540 <RC>
    2224:	55                   	push   %rbp
    2225:	89 fd                	mov    %edi,%ebp
    2227:	53                   	push   %rbx
    2228:	48 63 da             	movslq %edx,%rbx
    222b:	48 83 ec 30          	sub    $0x30,%rsp
    222f:	48 89 3c 24          	mov    %rdi,(%rsp)
    2233:	4c 8d 5c 24 10       	lea    0x10(%rsp),%r11
    2238:	49 89 e2             	mov    %rsp,%r10
    223b:	48 c1 ef 38          	shr    $0x38,%rdi
    223f:	48 89 74 24 08       	mov    %rsi,0x8(%rsp)
    2244:	4c 89 d9             	mov    %r11,%rcx
    2247:	4d 89 d0             	mov    %r10,%r8
    224a:	31 f6                	xor    %esi,%esi
    224c:	64 48 8b 04 25 28 00 	mov    %fs:0x28,%rax
    2253:	00 00 
    2255:	48 89 44 24 28       	mov    %rax,0x28(%rsp)
    225a:	31 c0                	xor    %eax,%eax
    225c:	b8 01 00 00 00       	mov    $0x1,%eax
    2261:	89 c2                	mov    %eax,%edx
    2263:	85 f6                	test   %esi,%esi
    2265:	74 1e                	je     2285 <genkey+0x75>
    2267:	0f b6 54 81 fb       	movzbl -0x5(%rcx,%rax,4),%edx
    226c:	41 32 54 80 fc       	xor    -0x4(%r8,%rax,4),%dl
    2271:	88 54 81 fc          	mov    %dl,-0x4(%rcx,%rax,4)
    2275:	48 83 f8 04          	cmp    $0x4,%rax
    2279:	74 2d                	je     22a8 <genkey+0x98>
    227b:	48 83 c0 01          	add    $0x1,%rax
    227f:	89 c2                	mov    %eax,%edx
    2281:	85 f6                	test   %esi,%esi
    2283:	75 e2                	jne    2267 <genkey+0x57>
    2285:	48 83 f8 01          	cmp    $0x1,%rax
    2289:	74 55                	je     22e0 <genkey+0xd0>
    228b:	83 e2 03             	and    $0x3,%edx
    228e:	0f b6 54 94 03       	movzbl 0x3(%rsp,%rdx,4),%edx
    2293:	41 0f b6 14 11       	movzbl (%r9,%rdx,1),%edx
    2298:	41 32 54 82 fc       	xor    -0x4(%r10,%rax,4),%dl
    229d:	41 88 54 83 fc       	mov    %dl,-0x4(%r11,%rax,4)
    22a2:	48 83 f8 04          	cmp    $0x4,%rax
    22a6:	75 d3                	jne    227b <genkey+0x6b>
    22a8:	83 c6 01             	add    $0x1,%esi
    22ab:	48 83 c1 01          	add    $0x1,%rcx
    22af:	49 83 c0 01          	add    $0x1,%r8
    22b3:	83 fe 04             	cmp    $0x4,%esi
    22b6:	75 a4                	jne    225c <genkey+0x4c>
    22b8:	48 8b 44 24 10       	mov    0x10(%rsp),%rax
    22bd:	48 8b 54 24 18       	mov    0x18(%rsp),%rdx
    22c2:	48 8b 4c 24 28       	mov    0x28(%rsp),%rcx
    22c7:	64 48 2b 0c 25 28 00 	sub    %fs:0x28,%rcx
    22ce:	00 00 
    22d0:	75 1f                	jne    22f1 <genkey+0xe1>
    22d2:	48 83 c4 30          	add    $0x30,%rsp
    22d6:	5b                   	pop    %rbx
    22d7:	5d                   	pop    %rbp
    22d8:	41 5c                	pop    %r12
    22da:	c3                   	ret    
    22db:	0f 1f 44 00 00       	nopl   0x0(%rax,%rax,1)
    22e0:	41 0f b6 14 39       	movzbl (%r9,%rdi,1),%edx
    22e5:	31 ea                	xor    %ebp,%edx
    22e7:	41 32 14 1c          	xor    (%r12,%rbx,1),%dl
    22eb:	88 54 24 10          	mov    %dl,0x10(%rsp)
    22ef:	eb 8a                	jmp    227b <genkey+0x6b>
    22f1:	e8 ba ee ff ff       	call   11b0 <__stack_chk_fail@plt>
    22f6:	66 2e 0f 1f 84 00 00 	cs nopw 0x0(%rax,%rax,1)
    22fd:	00 00 00 

0000000000002300 <initgen>:
    2300:	f3 0f 1e fa          	endbr64 
    2304:	41 54                	push   %r12
    2306:	4c 8d 25 93 4d 00 03 	lea    0x3004d93(%rip),%r12        # 30070a0 <keyg>
    230d:	31 c9                	xor    %ecx,%ecx
    230f:	55                   	push   %rbp
    2310:	4c 89 e6             	mov    %r12,%rsi
    2313:	53                   	push   %rbx
    2314:	31 c0                	xor    %eax,%eax
    2316:	89 ca                	mov    %ecx,%edx
    2318:	09 c2                	or     %eax,%edx
    231a:	48 63 d2             	movslq %edx,%rdx
    231d:	0f b6 14 17          	movzbl (%rdi,%rdx,1),%edx
    2321:	88 14 86             	mov    %dl,(%rsi,%rax,4)
    2324:	48 83 c0 01          	add    $0x1,%rax
    2328:	48 83 f8 04          	cmp    $0x4,%rax
    232c:	75 e8                	jne    2316 <initgen+0x16>
    232e:	83 c1 04             	add    $0x4,%ecx
    2331:	48 83 c6 01          	add    $0x1,%rsi
    2335:	83 f9 10             	cmp    $0x10,%ecx
    2338:	75 da                	jne    2314 <initgen+0x14>
    233a:	bb 01 00 00 00       	mov    $0x1,%ebx
    233f:	90                   	nop
    2340:	8d 43 ff             	lea    -0x1(%rbx),%eax
    2343:	48 63 eb             	movslq %ebx,%rbp
    2346:	89 da                	mov    %ebx,%edx
    2348:	83 c3 01             	add    $0x1,%ebx
    234b:	48 98                	cltq   
    234d:	48 c1 e5 04          	shl    $0x4,%rbp
    2351:	48 c1 e0 04          	shl    $0x4,%rax
    2355:	4c 01 e5             	add    %r12,%rbp
    2358:	4c 01 e0             	add    %r12,%rax
    235b:	48 8b 38             	mov    (%rax),%rdi
    235e:	48 8b 70 08          	mov    0x8(%rax),%rsi
    2362:	e8 a9 fe ff ff       	call   2210 <genkey>
    2367:	48 89 45 00          	mov    %rax,0x0(%rbp)
    236b:	48 89 55 08          	mov    %rdx,0x8(%rbp)
    236f:	83 fb 0b             	cmp    $0xb,%ebx
    2372:	75 cc                	jne    2340 <initgen+0x40>
    2374:	5b                   	pop    %rbx
    2375:	5d                   	pop    %rbp
    2376:	41 5c                	pop    %r12
    2378:	c3                   	ret    
    2379:	0f 1f 80 00 00 00 00 	nopl   0x0(%rax)

0000000000002380 <addroundkey>:
    2380:	f3 0f 1e fa          	endbr64 
    2384:	31 c0                	xor    %eax,%eax
    2386:	8b 14 06             	mov    (%rsi,%rax,1),%edx
    2389:	31 14 07             	xor    %edx,(%rdi,%rax,1)
    238c:	48 83 c0 04          	add    $0x4,%rax
    2390:	48 83 f8 10          	cmp    $0x10,%rax
    2394:	75 f0                	jne    2386 <addroundkey+0x6>
    2396:	c3                   	ret    
    2397:	66 0f 1f 84 00 00 00 	nopw   0x0(%rax,%rax,1)
    239e:	00 00 

00000000000023a0 <subbytes>:
    23a0:	f3 0f 1e fa          	endbr64 
    23a4:	48 89 fa             	mov    %rdi,%rdx
    23a7:	48 8d 0d 92 20 00 00 	lea    0x2092(%rip),%rcx        # 4440 <s_box>
    23ae:	48 8d 7f 10          	lea    0x10(%rdi),%rdi
    23b2:	0f b6 42 01          	movzbl 0x1(%rdx),%eax
    23b6:	0f b6 72 02          	movzbl 0x2(%rdx),%esi
    23ba:	48 83 c2 04          	add    $0x4,%rdx
    23be:	0f b6 04 01          	movzbl (%rcx,%rax,1),%eax
    23c2:	0f b6 34 31          	movzbl (%rcx,%rsi,1),%esi
    23c6:	c1 e0 08             	shl    $0x8,%eax
    23c9:	c1 e6 10             	shl    $0x10,%esi
    23cc:	09 f0                	or     %esi,%eax
    23ce:	0f b6 72 fc          	movzbl -0x4(%rdx),%esi
    23d2:	0f b6 34 31          	movzbl (%rcx,%rsi,1),%esi
    23d6:	09 f0                	or     %esi,%eax
    23d8:	0f b6 72 ff          	movzbl -0x1(%rdx),%esi
    23dc:	0f b6 34 31          	movzbl (%rcx,%rsi,1),%esi
    23e0:	c1 e6 18             	shl    $0x18,%esi
    23e3:	09 f0                	or     %esi,%eax
    23e5:	89 42 fc             	mov    %eax,-0x4(%rdx)
    23e8:	48 39 d7             	cmp    %rdx,%rdi
    23eb:	75 c5                	jne    23b2 <subbytes+0x12>
    23ed:	c3                   	ret    
    23ee:	66 90                	xchg   %ax,%ax

00000000000023f0 <rowshift>:
    23f0:	f3 0f 1e fa          	endbr64 
    23f4:	31 c0                	xor    %eax,%eax
    23f6:	41 b8 00 01 00 00    	mov    $0x100,%r8d
    23fc:	8b 17                	mov    (%rdi),%edx
    23fe:	44 89 c1             	mov    %r8d,%ecx
    2401:	48 83 c7 04          	add    $0x4,%rdi
    2405:	29 c1                	sub    %eax,%ecx
    2407:	89 d6                	mov    %edx,%esi
    2409:	d3 e6                	shl    %cl,%esi
    240b:	89 c1                	mov    %eax,%ecx
    240d:	83 c0 08             	add    $0x8,%eax
    2410:	d3 ea                	shr    %cl,%edx
    2412:	09 d6                	or     %edx,%esi
    2414:	89 77 fc             	mov    %esi,-0x4(%rdi)
    2417:	83 f8 20             	cmp    $0x20,%eax
    241a:	75 e0                	jne    23fc <rowshift+0xc>
    241c:	c3                   	ret    
    241d:	0f 1f 00             	nopl   (%rax)

0000000000002420 <columnmix>:
    2420:	f3 0f 1e fa          	endbr64 
    2424:	41 57                	push   %r15
    2426:	0f b6 15 15 1e 00 00 	movzbl 0x1e15(%rip),%edx        # 4242 <Logtable+0x2>
    242d:	48 89 f8             	mov    %rdi,%rax
    2430:	4c 8d 3d 09 1e 00 00 	lea    0x1e09(%rip),%r15        # 4240 <Logtable>
    2437:	41 56                	push   %r14
    2439:	41 55                	push   %r13
    243b:	41 54                	push   %r12
    243d:	55                   	push   %rbp
    243e:	53                   	push   %rbx
    243f:	66 89 54 24 f2       	mov    %dx,-0xe(%rsp)
    2444:	0f b6 15 f8 1d 00 00 	movzbl 0x1df8(%rip),%edx        # 4243 <Logtable+0x3>
    244b:	66 89 54 24 f4       	mov    %dx,-0xc(%rsp)
    2450:	0f b6 15 ea 1d 00 00 	movzbl 0x1dea(%rip),%edx        # 4241 <Logtable+0x1>
    2457:	66 89 54 24 f6       	mov    %dx,-0xa(%rsp)
    245c:	48 8d 57 04          	lea    0x4(%rdi),%rdx
    2460:	48 89 54 24 f8       	mov    %rdx,-0x8(%rsp)
    2465:	48 8d 15 d4 1c 00 00 	lea    0x1cd4(%rip),%rdx        # 4140 <Alogtable>
    246c:	0f b6 08             	movzbl (%rax),%ecx
    246f:	0f b6 58 04          	movzbl 0x4(%rax),%ebx
    2473:	44 0f b6 60 08       	movzbl 0x8(%rax),%r12d
    2478:	0f b6 68 0c          	movzbl 0xc(%rax),%ebp
    247c:	45 0f b6 34 0f       	movzbl (%r15,%rcx,1),%r14d
    2481:	49 89 ca             	mov    %rcx,%r10
    2484:	0f b6 cb             	movzbl %bl,%ecx
    2487:	41 0f b6 34 0f       	movzbl (%r15,%rcx,1),%esi
    248c:	41 0f b6 cc          	movzbl %r12b,%ecx
    2490:	45 0f b6 1c 0f       	movzbl (%r15,%rcx,1),%r11d
    2495:	40 0f b6 cd          	movzbl %bpl,%ecx
    2499:	66 89 74 24 f0       	mov    %si,-0x10(%rsp)
    249e:	45 0f b6 0c 0f       	movzbl (%r15,%rcx,1),%r9d
    24a3:	31 f6                	xor    %esi,%esi
    24a5:	45 84 d2             	test   %r10b,%r10b
    24a8:	74 1d                	je     24c7 <columnmix+0xa7>
    24aa:	0f b7 74 24 f2       	movzwl -0xe(%rsp),%esi
    24af:	42 8d 0c 36          	lea    (%rsi,%r14,1),%ecx
    24b3:	0f b6 f1             	movzbl %cl,%esi
    24b6:	66 c1 e9 08          	shr    $0x8,%cx
    24ba:	48 01 f1             	add    %rsi,%rcx
    24bd:	81 e1 ff 01 00 00    	and    $0x1ff,%ecx
    24c3:	0f b6 34 0a          	movzbl (%rdx,%rcx,1),%esi
    24c7:	84 db                	test   %bl,%bl
    24c9:	74 20                	je     24eb <columnmix+0xcb>
    24cb:	0f b7 7c 24 f4       	movzwl -0xc(%rsp),%edi
    24d0:	0f b7 4c 24 f0       	movzwl -0x10(%rsp),%ecx
    24d5:	01 f9                	add    %edi,%ecx
    24d7:	0f b6 f9             	movzbl %cl,%edi
    24da:	66 c1 e9 08          	shr    $0x8,%cx
    24de:	48 01 f9             	add    %rdi,%rcx
    24e1:	81 e1 ff 01 00 00    	and    $0x1ff,%ecx
    24e7:	40 32 34 0a          	xor    (%rdx,%rcx,1),%sil
    24eb:	31 c9                	xor    %ecx,%ecx
    24ed:	45 84 e4             	test   %r12b,%r12b
    24f0:	74 1e                	je     2510 <columnmix+0xf0>
    24f2:	0f b7 4c 24 f6       	movzwl -0xa(%rsp),%ecx
    24f7:	44 01 d9             	add    %r11d,%ecx
    24fa:	0f b6 f9             	movzbl %cl,%edi
    24fd:	66 c1 e9 08          	shr    $0x8,%cx
    2501:	48 01 f9             	add    %rdi,%rcx
    2504:	81 e1 ff 01 00 00    	and    $0x1ff,%ecx
    250a:	0f b6 0c 0a          	movzbl (%rdx,%rcx,1),%ecx
    250e:	31 ce                	xor    %ecx,%esi
    2510:	31 ff                	xor    %edi,%edi
    2512:	40 84 ed             	test   %bpl,%bpl
    2515:	74 1f                	je     2536 <columnmix+0x116>
    2517:	0f b7 7c 24 f6       	movzwl -0xa(%rsp),%edi
    251c:	44 01 cf             	add    %r9d,%edi
    251f:	44 0f b6 ef          	movzbl %dil,%r13d
    2523:	66 c1 ef 08          	shr    $0x8,%di
    2527:	4c 01 ef             	add    %r13,%rdi
    252a:	81 e7 ff 01 00 00    	and    $0x1ff,%edi
    2530:	0f b6 3c 3a          	movzbl (%rdx,%rdi,1),%edi
    2534:	31 fe                	xor    %edi,%esi
    2536:	40 88 30             	mov    %sil,(%rax)
    2539:	31 f6                	xor    %esi,%esi
    253b:	45 84 d2             	test   %r10b,%r10b
    253e:	74 1f                	je     255f <columnmix+0x13f>
    2540:	0f b7 74 24 f6       	movzwl -0xa(%rsp),%esi
    2545:	44 01 f6             	add    %r14d,%esi
    2548:	44 0f b6 ee          	movzbl %sil,%r13d
    254c:	66 c1 ee 08          	shr    $0x8,%si
    2550:	4c 01 ee             	add    %r13,%rsi
    2553:	81 e6 ff 01 00 00    	and    $0x1ff,%esi
    2559:	0f b6 34 32          	movzbl (%rdx,%rsi,1),%esi
    255d:	31 f7                	xor    %esi,%edi
    255f:	84 db                	test   %bl,%bl
    2561:	74 23                	je     2586 <columnmix+0x166>
    2563:	44 0f b7 6c 24 f2    	movzwl -0xe(%rsp),%r13d
    2569:	66 44 03 6c 24 f0    	add    -0x10(%rsp),%r13w
    256f:	45 0f b6 c5          	movzbl %r13b,%r8d
    2573:	66 41 c1 ed 08       	shr    $0x8,%r13w
    2578:	4d 01 c5             	add    %r8,%r13
    257b:	41 81 e5 ff 01 00 00 	and    $0x1ff,%r13d
    2582:	42 32 3c 2a          	xor    (%rdx,%r13,1),%dil
    2586:	45 84 e4             	test   %r12b,%r12b
    2589:	0f 84 29 01 00 00    	je     26b8 <columnmix+0x298>
    258f:	44 0f b7 44 24 f4    	movzwl -0xc(%rsp),%r8d
    2595:	47 8d 24 18          	lea    (%r8,%r11,1),%r12d
    2599:	45 0f b6 ec          	movzbl %r12b,%r13d
    259d:	66 41 c1 ec 08       	shr    $0x8,%r12w
    25a2:	4d 01 ec             	add    %r13,%r12
    25a5:	41 81 e4 ff 01 00 00 	and    $0x1ff,%r12d
    25ac:	42 32 3c 22          	xor    (%rdx,%r12,1),%dil
    25b0:	40 88 78 04          	mov    %dil,0x4(%rax)
    25b4:	84 db                	test   %bl,%bl
    25b6:	74 26                	je     25de <columnmix+0x1be>
    25b8:	44 0f b7 44 24 f0    	movzwl -0x10(%rsp),%r8d
    25be:	66 44 03 44 24 f6    	add    -0xa(%rsp),%r8w
    25c4:	41 0f b6 f8          	movzbl %r8b,%edi
    25c8:	66 41 c1 e8 08       	shr    $0x8,%r8w
    25cd:	4c 01 c7             	add    %r8,%rdi
    25d0:	81 e7 ff 01 00 00    	and    $0x1ff,%edi
    25d6:	0f b6 3c 3a          	movzbl (%rdx,%rdi,1),%edi
    25da:	31 fe                	xor    %edi,%esi
    25dc:	31 f9                	xor    %edi,%ecx
    25de:	66 44 03 5c 24 f2    	add    -0xe(%rsp),%r11w
    25e4:	41 0f b6 fb          	movzbl %r11b,%edi
    25e8:	66 41 c1 eb 08       	shr    $0x8,%r11w
    25ed:	4c 01 df             	add    %r11,%rdi
    25f0:	81 e7 ff 01 00 00    	and    $0x1ff,%edi
    25f6:	40 32 34 3a          	xor    (%rdx,%rdi,1),%sil
    25fa:	40 84 ed             	test   %bpl,%bpl
    25fd:	0f 84 85 00 00 00    	je     2688 <columnmix+0x268>
    2603:	0f b7 5c 24 f4       	movzwl -0xc(%rsp),%ebx
    2608:	42 8d 3c 0b          	lea    (%rbx,%r9,1),%edi
    260c:	44 0f b6 c7          	movzbl %dil,%r8d
    2610:	66 c1 ef 08          	shr    $0x8,%di
    2614:	4c 01 c7             	add    %r8,%rdi
    2617:	81 e7 ff 01 00 00    	and    $0x1ff,%edi
    261d:	40 32 34 3a          	xor    (%rdx,%rdi,1),%sil
    2621:	40 88 70 08          	mov    %sil,0x8(%rax)
    2625:	45 84 d2             	test   %r10b,%r10b
    2628:	74 1f                	je     2649 <columnmix+0x229>
    262a:	0f b7 5c 24 f4       	movzwl -0xc(%rsp),%ebx
    262f:	41 8d 34 1e          	lea    (%r14,%rbx,1),%esi
    2633:	89 f7                	mov    %esi,%edi
    2635:	40 0f b6 f6          	movzbl %sil,%esi
    2639:	66 c1 ef 08          	shr    $0x8,%di
    263d:	48 01 fe             	add    %rdi,%rsi
    2640:	81 e6 ff 01 00 00    	and    $0x1ff,%esi
    2646:	32 0c 32             	xor    (%rdx,%rsi,1),%cl
    2649:	66 44 03 4c 24 f2    	add    -0xe(%rsp),%r9w
    264f:	41 0f b6 f1          	movzbl %r9b,%esi
    2653:	66 41 c1 e9 08       	shr    $0x8,%r9w
    2658:	4c 01 ce             	add    %r9,%rsi
    265b:	81 e6 ff 01 00 00    	and    $0x1ff,%esi
    2661:	32 0c 32             	xor    (%rdx,%rsi,1),%cl
    2664:	88 48 0c             	mov    %cl,0xc(%rax)
    2667:	48 83 c0 01          	add    $0x1,%rax
    266b:	48 39 44 24 f8       	cmp    %rax,-0x8(%rsp)
    2670:	0f 85 f6 fd ff ff    	jne    246c <columnmix+0x4c>
    2676:	5b                   	pop    %rbx
    2677:	5d                   	pop    %rbp
    2678:	41 5c                	pop    %r12
    267a:	41 5d                	pop    %r13
    267c:	41 5e                	pop    %r14
    267e:	41 5f                	pop    %r15
    2680:	c3                   	ret    
    2681:	0f 1f 80 00 00 00 00 	nopl   0x0(%rax)
    2688:	40 88 70 08          	mov    %sil,0x8(%rax)
    268c:	45 84 d2             	test   %r10b,%r10b
    268f:	74 d3                	je     2664 <columnmix+0x244>
    2691:	0f b7 5c 24 f4       	movzwl -0xc(%rsp),%ebx
    2696:	41 8d 34 1e          	lea    (%r14,%rbx,1),%esi
    269a:	89 f7                	mov    %esi,%edi
    269c:	40 0f b6 f6          	movzbl %sil,%esi
    26a0:	66 c1 ef 08          	shr    $0x8,%di
    26a4:	48 01 fe             	add    %rdi,%rsi
    26a7:	81 e6 ff 01 00 00    	and    $0x1ff,%esi
    26ad:	32 0c 32             	xor    (%rdx,%rsi,1),%cl
    26b0:	eb b2                	jmp    2664 <columnmix+0x244>
    26b2:	66 0f 1f 44 00 00    	nopw   0x0(%rax,%rax,1)
    26b8:	40 88 78 04          	mov    %dil,0x4(%rax)
    26bc:	84 db                	test   %bl,%bl
    26be:	0f 84 36 ff ff ff    	je     25fa <columnmix+0x1da>
    26c4:	44 0f b7 44 24 f0    	movzwl -0x10(%rsp),%r8d
    26ca:	66 44 03 44 24 f6    	add    -0xa(%rsp),%r8w
    26d0:	41 0f b6 f8          	movzbl %r8b,%edi
    26d4:	66 41 c1 e8 08       	shr    $0x8,%r8w
    26d9:	4c 01 c7             	add    %r8,%rdi
    26dc:	81 e7 ff 01 00 00    	and    $0x1ff,%edi
    26e2:	0f b6 3c 3a          	movzbl (%rdx,%rdi,1),%edi
    26e6:	31 fe                	xor    %edi,%esi
    26e8:	31 f9                	xor    %edi,%ecx
    26ea:	e9 0b ff ff ff       	jmp    25fa <columnmix+0x1da>
    26ef:	90                   	nop

00000000000026f0 <commonround>:
    26f0:	f3 0f 1e fa          	endbr64 
    26f4:	48 63 d6             	movslq %esi,%rdx
    26f7:	48 8d 05 a2 49 00 03 	lea    0x30049a2(%rip),%rax        # 30070a0 <keyg>
    26fe:	49 89 f8             	mov    %rdi,%r8
    2701:	48 c1 e2 04          	shl    $0x4,%rdx
    2705:	48 01 c2             	add    %rax,%rdx
    2708:	31 c0                	xor    %eax,%eax
    270a:	8b 0c 02             	mov    (%rdx,%rax,1),%ecx
    270d:	41 31 0c 00          	xor    %ecx,(%r8,%rax,1)
    2711:	48 83 c0 04          	add    $0x4,%rax
    2715:	48 83 f8 10          	cmp    $0x10,%rax
    2719:	75 ef                	jne    270a <commonround+0x1a>
    271b:	4c 89 c7             	mov    %r8,%rdi
    271e:	41 b9 00 01 00 00    	mov    $0x100,%r9d
    2724:	e8 77 fc ff ff       	call   23a0 <subbytes>
    2729:	4c 89 c6             	mov    %r8,%rsi
    272c:	31 c0                	xor    %eax,%eax
    272e:	8b 16                	mov    (%rsi),%edx
    2730:	44 89 c9             	mov    %r9d,%ecx
    2733:	48 83 c6 04          	add    $0x4,%rsi
    2737:	29 c1                	sub    %eax,%ecx
    2739:	89 d7                	mov    %edx,%edi
    273b:	d3 e7                	shl    %cl,%edi
    273d:	89 c1                	mov    %eax,%ecx
    273f:	83 c0 08             	add    $0x8,%eax
    2742:	d3 ea                	shr    %cl,%edx
    2744:	09 d7                	or     %edx,%edi
    2746:	89 7e fc             	mov    %edi,-0x4(%rsi)
    2749:	83 f8 20             	cmp    $0x20,%eax
    274c:	75 e0                	jne    272e <commonround+0x3e>
    274e:	4c 89 c7             	mov    %r8,%rdi
    2751:	e9 ca fc ff ff       	jmp    2420 <columnmix>
    2756:	66 2e 0f 1f 84 00 00 	cs nopw 0x0(%rax,%rax,1)
    275d:	00 00 00 

0000000000002760 <lastround>:
    2760:	f3 0f 1e fa          	endbr64 
    2764:	49 89 f8             	mov    %rdi,%r8
    2767:	31 c0                	xor    %eax,%eax
    2769:	48 8d 0d c0 49 00 03 	lea    0x30049c0(%rip),%rcx        # 3007130 <keyg+0x90>
    2770:	8b 14 01             	mov    (%rcx,%rax,1),%edx
    2773:	41 31 14 00          	xor    %edx,(%r8,%rax,1)
    2777:	48 83 c0 04          	add    $0x4,%rax
    277b:	48 83 f8 10          	cmp    $0x10,%rax
    277f:	75 ef                	jne    2770 <lastround+0x10>
    2781:	4c 89 c7             	mov    %r8,%rdi
    2784:	41 b9 00 01 00 00    	mov    $0x100,%r9d
    278a:	e8 11 fc ff ff       	call   23a0 <subbytes>
    278f:	4c 89 c6             	mov    %r8,%rsi
    2792:	31 c0                	xor    %eax,%eax
    2794:	8b 16                	mov    (%rsi),%edx
    2796:	44 89 c9             	mov    %r9d,%ecx
    2799:	48 83 c6 04          	add    $0x4,%rsi
    279d:	29 c1                	sub    %eax,%ecx
    279f:	89 d7                	mov    %edx,%edi
    27a1:	d3 e7                	shl    %cl,%edi
    27a3:	89 c1                	mov    %eax,%ecx
    27a5:	83 c0 08             	add    $0x8,%eax
    27a8:	d3 ea                	shr    %cl,%edx
    27aa:	09 d7                	or     %edx,%edi
    27ac:	89 7e fc             	mov    %edi,-0x4(%rsi)
    27af:	83 f8 20             	cmp    $0x20,%eax
    27b2:	75 e0                	jne    2794 <lastround+0x34>
    27b4:	31 c0                	xor    %eax,%eax
    27b6:	48 8d 0d 83 49 00 03 	lea    0x3004983(%rip),%rcx        # 3007140 <keyg+0xa0>
    27bd:	8b 14 01             	mov    (%rcx,%rax,1),%edx
    27c0:	41 31 14 00          	xor    %edx,(%r8,%rax,1)
    27c4:	48 83 c0 04          	add    $0x4,%rax
    27c8:	48 83 f8 10          	cmp    $0x10,%rax
    27cc:	75 ef                	jne    27bd <lastround+0x5d>
    27ce:	c3                   	ret    
    27cf:	90                   	nop

00000000000027d0 <runaes_128bit>:
    27d0:	f3 0f 1e fa          	endbr64 
    27d4:	41 55                	push   %r13
    27d6:	4c 8d 2d c3 48 00 03 	lea    0x30048c3(%rip),%r13        # 30070a0 <keyg>
    27dd:	41 54                	push   %r12
    27df:	49 89 fc             	mov    %rdi,%r12
    27e2:	55                   	push   %rbp
    27e3:	49 8d ad 90 00 00 00 	lea    0x90(%r13),%rbp
    27ea:	53                   	push   %rbx
    27eb:	bb 00 01 00 00       	mov    $0x100,%ebx
    27f0:	31 c0                	xor    %eax,%eax
    27f2:	41 8b 54 05 00       	mov    0x0(%r13,%rax,1),%edx
    27f7:	41 31 14 04          	xor    %edx,(%r12,%rax,1)
    27fb:	48 83 c0 04          	add    $0x4,%rax
    27ff:	48 83 f8 10          	cmp    $0x10,%rax
    2803:	75 ed                	jne    27f2 <runaes_128bit+0x22>
    2805:	4c 89 e7             	mov    %r12,%rdi
    2808:	e8 93 fb ff ff       	call   23a0 <subbytes>
    280d:	4c 89 e6             	mov    %r12,%rsi
    2810:	31 c0                	xor    %eax,%eax
    2812:	8b 16                	mov    (%rsi),%edx
    2814:	89 d9                	mov    %ebx,%ecx
    2816:	48 83 c6 04          	add    $0x4,%rsi
    281a:	29 c1                	sub    %eax,%ecx
    281c:	41 89 d0             	mov    %edx,%r8d
    281f:	41 d3 e0             	shl    %cl,%r8d
    2822:	89 c1                	mov    %eax,%ecx
    2824:	83 c0 08             	add    $0x8,%eax
    2827:	d3 ea                	shr    %cl,%edx
    2829:	41 09 d0             	or     %edx,%r8d
    282c:	44 89 46 fc          	mov    %r8d,-0x4(%rsi)
    2830:	83 f8 20             	cmp    $0x20,%eax
    2833:	75 dd                	jne    2812 <runaes_128bit+0x42>
    2835:	4c 89 e7             	mov    %r12,%rdi
    2838:	49 83 c5 10          	add    $0x10,%r13
    283c:	e8 df fb ff ff       	call   2420 <columnmix>
    2841:	4c 39 ed             	cmp    %r13,%rbp
    2844:	75 aa                	jne    27f0 <runaes_128bit+0x20>
    2846:	5b                   	pop    %rbx
    2847:	4c 89 e7             	mov    %r12,%rdi
    284a:	5d                   	pop    %rbp
    284b:	41 5c                	pop    %r12
    284d:	41 5d                	pop    %r13
    284f:	e9 0c ff ff ff       	jmp    2760 <lastround>
    2854:	66 2e 0f 1f 84 00 00 	cs nopw 0x0(%rax,%rax,1)
    285b:	00 00 00 
    285e:	66 90                	xchg   %ax,%ax

0000000000002860 <resubbytes>:
    2860:	f3 0f 1e fa          	endbr64 
    2864:	48 89 fa             	mov    %rdi,%rdx
    2867:	48 8d 0d d2 1a 00 00 	lea    0x1ad2(%rip),%rcx        # 4340 <rs_box>
    286e:	48 8d 7f 10          	lea    0x10(%rdi),%rdi
    2872:	0f b6 42 01          	movzbl 0x1(%rdx),%eax
    2876:	0f b6 72 02          	movzbl 0x2(%rdx),%esi
    287a:	48 83 c2 04          	add    $0x4,%rdx
    287e:	0f b6 04 01          	movzbl (%rcx,%rax,1),%eax
    2882:	0f b6 34 31          	movzbl (%rcx,%rsi,1),%esi
    2886:	c1 e0 08             	shl    $0x8,%eax
    2889:	c1 e6 10             	shl    $0x10,%esi
    288c:	09 f0                	or     %esi,%eax
    288e:	0f b6 72 fc          	movzbl -0x4(%rdx),%esi
    2892:	0f b6 34 31          	movzbl (%rcx,%rsi,1),%esi
    2896:	09 f0                	or     %esi,%eax
    2898:	0f b6 72 ff          	movzbl -0x1(%rdx),%esi
    289c:	0f b6 34 31          	movzbl (%rcx,%rsi,1),%esi
    28a0:	c1 e6 18             	shl    $0x18,%esi
    28a3:	09 f0                	or     %esi,%eax
    28a5:	89 42 fc             	mov    %eax,-0x4(%rdx)
    28a8:	48 39 d7             	cmp    %rdx,%rdi
    28ab:	75 c5                	jne    2872 <resubbytes+0x12>
    28ad:	c3                   	ret    
    28ae:	66 90                	xchg   %ax,%ax

00000000000028b0 <rerowshift>:
    28b0:	f3 0f 1e fa          	endbr64 
    28b4:	31 c0                	xor    %eax,%eax
    28b6:	41 b8 00 01 00 00    	mov    $0x100,%r8d
    28bc:	8b 17                	mov    (%rdi),%edx
    28be:	44 89 c1             	mov    %r8d,%ecx
    28c1:	48 83 c7 04          	add    $0x4,%rdi
    28c5:	29 c1                	sub    %eax,%ecx
    28c7:	89 d6                	mov    %edx,%esi
    28c9:	d3 ee                	shr    %cl,%esi
    28cb:	89 c1                	mov    %eax,%ecx
    28cd:	83 c0 08             	add    $0x8,%eax
    28d0:	d3 e2                	shl    %cl,%edx
    28d2:	09 d6                	or     %edx,%esi
    28d4:	89 77 fc             	mov    %esi,-0x4(%rdi)
    28d7:	83 f8 20             	cmp    $0x20,%eax
    28da:	75 e0                	jne    28bc <rerowshift+0xc>
    28dc:	c3                   	ret    
    28dd:	0f 1f 00             	nopl   (%rax)

00000000000028e0 <recolumnmix>:
    28e0:	f3 0f 1e fa          	endbr64 
    28e4:	41 57                	push   %r15
    28e6:	0f b6 15 5c 19 00 00 	movzbl 0x195c(%rip),%edx        # 4249 <Logtable+0x9>
    28ed:	48 89 f8             	mov    %rdi,%rax
    28f0:	41 56                	push   %r14
    28f2:	41 55                	push   %r13
    28f4:	44 0f b6 2d 52 19 00 	movzbl 0x1952(%rip),%r13d        # 424e <Logtable+0xe>
    28fb:	00 
    28fc:	41 54                	push   %r12
    28fe:	4c 8d 25 3b 19 00 00 	lea    0x193b(%rip),%r12        # 4240 <Logtable>
    2905:	55                   	push   %rbp
    2906:	53                   	push   %rbx
    2907:	0f b6 1d 3d 19 00 00 	movzbl 0x193d(%rip),%ebx        # 424b <Logtable+0xb>
    290e:	66 89 5c 24 f2       	mov    %bx,-0xe(%rsp)
    2913:	0f b6 1d 33 19 00 00 	movzbl 0x1933(%rip),%ebx        # 424d <Logtable+0xd>
    291a:	66 89 54 24 f6       	mov    %dx,-0xa(%rsp)
    291f:	48 8d 15 1a 18 00 00 	lea    0x181a(%rip),%rdx        # 4140 <Alogtable>
    2926:	66 89 5c 24 f4       	mov    %bx,-0xc(%rsp)
    292b:	48 8d 5f 04          	lea    0x4(%rdi),%rbx
    292f:	48 89 5c 24 f8       	mov    %rbx,-0x8(%rsp)
    2934:	44 0f b6 08          	movzbl (%rax),%r9d
    2938:	0f b6 78 04          	movzbl 0x4(%rax),%edi
    293c:	31 ed                	xor    %ebp,%ebp
    293e:	0f b6 70 08          	movzbl 0x8(%rax),%esi
    2942:	0f b6 48 0c          	movzbl 0xc(%rax),%ecx
    2946:	43 0f b6 1c 0c       	movzbl (%r12,%r9,1),%ebx
    294b:	4d 89 c8             	mov    %r9,%r8
    294e:	44 0f b6 cf          	movzbl %dil,%r9d
    2952:	47 0f b6 1c 0c       	movzbl (%r12,%r9,1),%r11d
    2957:	44 0f b6 ce          	movzbl %sil,%r9d
    295b:	47 0f b6 14 0c       	movzbl (%r12,%r9,1),%r10d
    2960:	44 0f b6 c9          	movzbl %cl,%r9d
    2964:	47 0f b6 0c 0c       	movzbl (%r12,%r9,1),%r9d
    2969:	45 84 c0             	test   %r8b,%r8b
    296c:	74 1a                	je     2988 <recolumnmix+0xa8>
    296e:	41 8d 6c 1d 00       	lea    0x0(%r13,%rbx,1),%ebp
    2973:	44 0f b6 f5          	movzbl %bpl,%r14d
    2977:	66 c1 ed 08          	shr    $0x8,%bp
    297b:	4c 01 f5             	add    %r14,%rbp
    297e:	81 e5 ff 01 00 00    	and    $0x1ff,%ebp
    2984:	0f b6 2c 2a          	movzbl (%rdx,%rbp,1),%ebp
    2988:	40 84 ff             	test   %dil,%dil
    298b:	74 21                	je     29ae <recolumnmix+0xce>
    298d:	44 0f b7 7c 24 f2    	movzwl -0xe(%rsp),%r15d
    2993:	47 8d 34 1f          	lea    (%r15,%r11,1),%r14d
    2997:	45 0f b6 fe          	movzbl %r14b,%r15d
    299b:	66 41 c1 ee 08       	shr    $0x8,%r14w
    29a0:	4d 01 fe             	add    %r15,%r14
    29a3:	41 81 e6 ff 01 00 00 	and    $0x1ff,%r14d
    29aa:	42 32 2c 32          	xor    (%rdx,%r14,1),%bpl
    29ae:	40 84 f6             	test   %sil,%sil
    29b1:	74 21                	je     29d4 <recolumnmix+0xf4>
    29b3:	44 0f b7 7c 24 f4    	movzwl -0xc(%rsp),%r15d
    29b9:	47 8d 34 17          	lea    (%r15,%r10,1),%r14d
    29bd:	45 0f b6 fe          	movzbl %r14b,%r15d
    29c1:	66 41 c1 ee 08       	shr    $0x8,%r14w
    29c6:	4d 01 fe             	add    %r15,%r14
    29c9:	41 81 e6 ff 01 00 00 	and    $0x1ff,%r14d
    29d0:	42 32 2c 32          	xor    (%rdx,%r14,1),%bpl
    29d4:	84 c9                	test   %cl,%cl
    29d6:	74 21                	je     29f9 <recolumnmix+0x119>
    29d8:	44 0f b7 7c 24 f6    	movzwl -0xa(%rsp),%r15d
    29de:	47 8d 34 0f          	lea    (%r15,%r9,1),%r14d
    29e2:	45 0f b6 fe          	movzbl %r14b,%r15d
    29e6:	66 41 c1 ee 08       	shr    $0x8,%r14w
    29eb:	4d 01 fe             	add    %r15,%r14
    29ee:	41 81 e6 ff 01 00 00 	and    $0x1ff,%r14d
    29f5:	42 32 2c 32          	xor    (%rdx,%r14,1),%bpl
    29f9:	40 88 28             	mov    %bpl,(%rax)
    29fc:	31 ed                	xor    %ebp,%ebp
    29fe:	45 84 c0             	test   %r8b,%r8b
    2a01:	74 1f                	je     2a22 <recolumnmix+0x142>
    2a03:	44 0f b7 7c 24 f6    	movzwl -0xa(%rsp),%r15d
    2a09:	42 8d 2c 3b          	lea    (%rbx,%r15,1),%ebp
    2a0d:	44 0f b6 f5          	movzbl %bpl,%r14d
    2a11:	66 c1 ed 08          	shr    $0x8,%bp
    2a15:	4c 01 f5             	add    %r14,%rbp
    2a18:	81 e5 ff 01 00 00    	and    $0x1ff,%ebp
    2a1e:	0f b6 2c 2a          	movzbl (%rdx,%rbp,1),%ebp
    2a22:	40 84 ff             	test   %dil,%dil
    2a25:	74 1c                	je     2a43 <recolumnmix+0x163>
    2a27:	47 8d 74 1d 00       	lea    0x0(%r13,%r11,1),%r14d
    2a2c:	45 0f b6 fe          	movzbl %r14b,%r15d
    2a30:	66 41 c1 ee 08       	shr    $0x8,%r14w
    2a35:	4d 01 fe             	add    %r15,%r14
    2a38:	41 81 e6 ff 01 00 00 	and    $0x1ff,%r14d
    2a3f:	42 32 2c 32          	xor    (%rdx,%r14,1),%bpl
    2a43:	40 84 f6             	test   %sil,%sil
    2a46:	74 21                	je     2a69 <recolumnmix+0x189>
    2a48:	44 0f b7 7c 24 f2    	movzwl -0xe(%rsp),%r15d
    2a4e:	47 8d 34 17          	lea    (%r15,%r10,1),%r14d
    2a52:	45 0f b6 fe          	movzbl %r14b,%r15d
    2a56:	66 41 c1 ee 08       	shr    $0x8,%r14w
    2a5b:	4d 01 fe             	add    %r15,%r14
    2a5e:	41 81 e6 ff 01 00 00 	and    $0x1ff,%r14d
    2a65:	42 32 2c 32          	xor    (%rdx,%r14,1),%bpl
    2a69:	84 c9                	test   %cl,%cl
    2a6b:	74 21                	je     2a8e <recolumnmix+0x1ae>
    2a6d:	44 0f b7 7c 24 f4    	movzwl -0xc(%rsp),%r15d
    2a73:	47 8d 34 0f          	lea    (%r15,%r9,1),%r14d
    2a77:	45 0f b6 fe          	movzbl %r14b,%r15d
    2a7b:	66 41 c1 ee 08       	shr    $0x8,%r14w
    2a80:	4d 01 fe             	add    %r15,%r14
    2a83:	41 81 e6 ff 01 00 00 	and    $0x1ff,%r14d
    2a8a:	42 32 2c 32          	xor    (%rdx,%r14,1),%bpl
    2a8e:	40 88 68 04          	mov    %bpl,0x4(%rax)
    2a92:	31 ed                	xor    %ebp,%ebp
    2a94:	45 84 c0             	test   %r8b,%r8b
    2a97:	74 1f                	je     2ab8 <recolumnmix+0x1d8>
    2a99:	44 0f b7 7c 24 f4    	movzwl -0xc(%rsp),%r15d
    2a9f:	42 8d 2c 3b          	lea    (%rbx,%r15,1),%ebp
    2aa3:	44 0f b6 f5          	movzbl %bpl,%r14d
    2aa7:	66 c1 ed 08          	shr    $0x8,%bp
    2aab:	4c 01 f5             	add    %r14,%rbp
    2aae:	81 e5 ff 01 00 00    	and    $0x1ff,%ebp
    2ab4:	0f b6 2c 2a          	movzbl (%rdx,%rbp,1),%ebp
    2ab8:	40 84 ff             	test   %dil,%dil
    2abb:	74 21                	je     2ade <recolumnmix+0x1fe>
    2abd:	44 0f b7 7c 24 f6    	movzwl -0xa(%rsp),%r15d
    2ac3:	47 8d 34 3b          	lea    (%r11,%r15,1),%r14d
    2ac7:	45 0f b6 fe          	movzbl %r14b,%r15d
    2acb:	66 41 c1 ee 08       	shr    $0x8,%r14w
    2ad0:	4d 01 fe             	add    %r15,%r14
    2ad3:	41 81 e6 ff 01 00 00 	and    $0x1ff,%r14d
    2ada:	42 32 2c 32          	xor    (%rdx,%r14,1),%bpl
    2ade:	40 84 f6             	test   %sil,%sil
    2ae1:	74 1c                	je     2aff <recolumnmix+0x21f>
    2ae3:	47 8d 74 15 00       	lea    0x0(%r13,%r10,1),%r14d
    2ae8:	45 0f b6 fe          	movzbl %r14b,%r15d
    2aec:	66 41 c1 ee 08       	shr    $0x8,%r14w
    2af1:	4d 01 fe             	add    %r15,%r14
    2af4:	41 81 e6 ff 01 00 00 	and    $0x1ff,%r14d
    2afb:	42 32 2c 32          	xor    (%rdx,%r14,1),%bpl
    2aff:	84 c9                	test   %cl,%cl
    2b01:	74 21                	je     2b24 <recolumnmix+0x244>
    2b03:	44 0f b7 7c 24 f2    	movzwl -0xe(%rsp),%r15d
    2b09:	47 8d 34 0f          	lea    (%r15,%r9,1),%r14d
    2b0d:	45 0f b6 fe          	movzbl %r14b,%r15d
    2b11:	66 41 c1 ee 08       	shr    $0x8,%r14w
    2b16:	4d 01 fe             	add    %r15,%r14
    2b19:	41 81 e6 ff 01 00 00 	and    $0x1ff,%r14d
    2b20:	42 32 2c 32          	xor    (%rdx,%r14,1),%bpl
    2b24:	40 88 68 08          	mov    %bpl,0x8(%rax)
    2b28:	31 ed                	xor    %ebp,%ebp
    2b2a:	45 84 c0             	test   %r8b,%r8b
    2b2d:	74 1c                	je     2b4b <recolumnmix+0x26b>
    2b2f:	66 03 5c 24 f2       	add    -0xe(%rsp),%bx
    2b34:	44 0f b6 c3          	movzbl %bl,%r8d
    2b38:	66 c1 eb 08          	shr    $0x8,%bx
    2b3c:	49 01 d8             	add    %rbx,%r8
    2b3f:	41 81 e0 ff 01 00 00 	and    $0x1ff,%r8d
    2b46:	42 0f b6 2c 02       	movzbl (%rdx,%r8,1),%ebp
    2b4b:	40 84 ff             	test   %dil,%dil
    2b4e:	74 1c                	je     2b6c <recolumnmix+0x28c>
    2b50:	66 44 03 5c 24 f4    	add    -0xc(%rsp),%r11w
    2b56:	41 0f b6 fb          	movzbl %r11b,%edi
    2b5a:	66 41 c1 eb 08       	shr    $0x8,%r11w
    2b5f:	4c 01 df             	add    %r11,%rdi
    2b62:	81 e7 ff 01 00 00    	and    $0x1ff,%edi
    2b68:	40 32 2c 3a          	xor    (%rdx,%rdi,1),%bpl
    2b6c:	40 84 f6             	test   %sil,%sil
    2b6f:	74 1c                	je     2b8d <recolumnmix+0x2ad>
    2b71:	66 44 03 54 24 f6    	add    -0xa(%rsp),%r10w
    2b77:	41 0f b6 f2          	movzbl %r10b,%esi
    2b7b:	66 41 c1 ea 08       	shr    $0x8,%r10w
    2b80:	4c 01 d6             	add    %r10,%rsi
    2b83:	81 e6 ff 01 00 00    	and    $0x1ff,%esi
    2b89:	40 32 2c 32          	xor    (%rdx,%rsi,1),%bpl
    2b8d:	84 c9                	test   %cl,%cl
    2b8f:	74 19                	je     2baa <recolumnmix+0x2ca>
    2b91:	45 01 e9             	add    %r13d,%r9d
    2b94:	41 0f b6 c9          	movzbl %r9b,%ecx
    2b98:	66 41 c1 e9 08       	shr    $0x8,%r9w
    2b9d:	4c 01 c9             	add    %r9,%rcx
    2ba0:	81 e1 ff 01 00 00    	and    $0x1ff,%ecx
    2ba6:	40 32 2c 0a          	xor    (%rdx,%rcx,1),%bpl
    2baa:	40 88 68 0c          	mov    %bpl,0xc(%rax)
    2bae:	48 83 c0 01          	add    $0x1,%rax
    2bb2:	48 39 44 24 f8       	cmp    %rax,-0x8(%rsp)
    2bb7:	0f 85 77 fd ff ff    	jne    2934 <recolumnmix+0x54>
    2bbd:	5b                   	pop    %rbx
    2bbe:	5d                   	pop    %rbp
    2bbf:	41 5c                	pop    %r12
    2bc1:	41 5d                	pop    %r13
    2bc3:	41 5e                	pop    %r14
    2bc5:	41 5f                	pop    %r15
    2bc7:	c3                   	ret    
    2bc8:	0f 1f 84 00 00 00 00 	nopl   0x0(%rax,%rax,1)
    2bcf:	00 

0000000000002bd0 <commondec>:
    2bd0:	f3 0f 1e fa          	endbr64 
    2bd4:	55                   	push   %rbp
    2bd5:	48 89 fd             	mov    %rdi,%rbp
    2bd8:	53                   	push   %rbx
    2bd9:	89 f3                	mov    %esi,%ebx
    2bdb:	48 83 ec 08          	sub    $0x8,%rsp
    2bdf:	e8 fc fc ff ff       	call   28e0 <recolumnmix>
    2be4:	48 89 ee             	mov    %rbp,%rsi
    2be7:	31 c0                	xor    %eax,%eax
    2be9:	41 b8 00 01 00 00    	mov    $0x100,%r8d
    2bef:	8b 16                	mov    (%rsi),%edx
    2bf1:	44 89 c1             	mov    %r8d,%ecx
    2bf4:	48 83 c6 04          	add    $0x4,%rsi
    2bf8:	29 c1                	sub    %eax,%ecx
    2bfa:	89 d7                	mov    %edx,%edi
    2bfc:	d3 ef                	shr    %cl,%edi
    2bfe:	89 c1                	mov    %eax,%ecx
    2c00:	83 c0 08             	add    $0x8,%eax
    2c03:	d3 e2                	shl    %cl,%edx
    2c05:	09 d7                	or     %edx,%edi
    2c07:	89 7e fc             	mov    %edi,-0x4(%rsi)
    2c0a:	83 f8 20             	cmp    $0x20,%eax
    2c0d:	75 e0                	jne    2bef <commondec+0x1f>
    2c0f:	48 89 ef             	mov    %rbp,%rdi
    2c12:	e8 49 fc ff ff       	call   2860 <resubbytes>
    2c17:	48 63 f3             	movslq %ebx,%rsi
    2c1a:	48 83 c4 08          	add    $0x8,%rsp
    2c1e:	48 89 ef             	mov    %rbp,%rdi
    2c21:	48 89 f3             	mov    %rsi,%rbx
    2c24:	48 8d 05 75 44 00 03 	lea    0x3004475(%rip),%rax        # 30070a0 <keyg>
    2c2b:	48 c1 e3 04          	shl    $0x4,%rbx
    2c2f:	48 8d 34 03          	lea    (%rbx,%rax,1),%rsi
    2c33:	5b                   	pop    %rbx
    2c34:	5d                   	pop    %rbp
    2c35:	e9 46 f7 ff ff       	jmp    2380 <addroundkey>
    2c3a:	66 0f 1f 44 00 00    	nopw   0x0(%rax,%rax,1)

0000000000002c40 <firstdec>:
    2c40:	f3 0f 1e fa          	endbr64 
    2c44:	55                   	push   %rbp
    2c45:	48 8d 35 f4 44 00 03 	lea    0x30044f4(%rip),%rsi        # 3007140 <keyg+0xa0>
    2c4c:	48 89 fd             	mov    %rdi,%rbp
    2c4f:	e8 2c f7 ff ff       	call   2380 <addroundkey>
    2c54:	48 89 ee             	mov    %rbp,%rsi
    2c57:	31 c0                	xor    %eax,%eax
    2c59:	bf 00 01 00 00       	mov    $0x100,%edi
    2c5e:	8b 16                	mov    (%rsi),%edx
    2c60:	89 f9                	mov    %edi,%ecx
    2c62:	48 83 c6 04          	add    $0x4,%rsi
    2c66:	29 c1                	sub    %eax,%ecx
    2c68:	41 89 d0             	mov    %edx,%r8d
    2c6b:	41 d3 e8             	shr    %cl,%r8d
    2c6e:	89 c1                	mov    %eax,%ecx
    2c70:	83 c0 08             	add    $0x8,%eax
    2c73:	d3 e2                	shl    %cl,%edx
    2c75:	41 09 d0             	or     %edx,%r8d
    2c78:	44 89 46 fc          	mov    %r8d,-0x4(%rsi)
    2c7c:	83 f8 20             	cmp    $0x20,%eax
    2c7f:	75 dd                	jne    2c5e <firstdec+0x1e>
    2c81:	48 89 ef             	mov    %rbp,%rdi
    2c84:	e8 d7 fb ff ff       	call   2860 <resubbytes>
    2c89:	48 89 ef             	mov    %rbp,%rdi
    2c8c:	48 8d 35 9d 44 00 03 	lea    0x300449d(%rip),%rsi        # 3007130 <keyg+0x90>
    2c93:	5d                   	pop    %rbp
    2c94:	e9 e7 f6 ff ff       	jmp    2380 <addroundkey>
    2c99:	0f 1f 80 00 00 00 00 	nopl   0x0(%rax)

0000000000002ca0 <decaes_128bit>:
    2ca0:	f3 0f 1e fa          	endbr64 
    2ca4:	41 55                	push   %r13
    2ca6:	48 8d 35 93 44 00 03 	lea    0x3004493(%rip),%rsi        # 3007140 <keyg+0xa0>
    2cad:	41 54                	push   %r12
    2caf:	55                   	push   %rbp
    2cb0:	53                   	push   %rbx
    2cb1:	48 89 fb             	mov    %rdi,%rbx
    2cb4:	48 83 ec 08          	sub    $0x8,%rsp
    2cb8:	e8 c3 f6 ff ff       	call   2380 <addroundkey>
    2cbd:	48 89 de             	mov    %rbx,%rsi
    2cc0:	31 c0                	xor    %eax,%eax
    2cc2:	41 b8 00 01 00 00    	mov    $0x100,%r8d
    2cc8:	8b 16                	mov    (%rsi),%edx
    2cca:	44 89 c1             	mov    %r8d,%ecx
    2ccd:	48 83 c6 04          	add    $0x4,%rsi
    2cd1:	29 c1                	sub    %eax,%ecx
    2cd3:	89 d7                	mov    %edx,%edi
    2cd5:	d3 ef                	shr    %cl,%edi
    2cd7:	89 c1                	mov    %eax,%ecx
    2cd9:	83 c0 08             	add    $0x8,%eax
    2cdc:	d3 e2                	shl    %cl,%edx
    2cde:	09 d7                	or     %edx,%edi
    2ce0:	89 7e fc             	mov    %edi,-0x4(%rsi)
    2ce3:	83 f8 20             	cmp    $0x20,%eax
    2ce6:	75 e0                	jne    2cc8 <decaes_128bit+0x28>
    2ce8:	48 89 df             	mov    %rbx,%rdi
    2ceb:	4c 8d 25 2e 44 00 03 	lea    0x300442e(%rip),%r12        # 3007120 <keyg+0x80>
    2cf2:	bd 00 01 00 00       	mov    $0x100,%ebp
    2cf7:	e8 64 fb ff ff       	call   2860 <resubbytes>
    2cfc:	48 8d 35 2d 44 00 03 	lea    0x300442d(%rip),%rsi        # 3007130 <keyg+0x90>
    2d03:	48 89 df             	mov    %rbx,%rdi
    2d06:	4d 8d 6c 24 80       	lea    -0x80(%r12),%r13
    2d0b:	e8 70 f6 ff ff       	call   2380 <addroundkey>
    2d10:	48 89 df             	mov    %rbx,%rdi
    2d13:	e8 c8 fb ff ff       	call   28e0 <recolumnmix>
    2d18:	48 89 de             	mov    %rbx,%rsi
    2d1b:	31 c0                	xor    %eax,%eax
    2d1d:	8b 16                	mov    (%rsi),%edx
    2d1f:	89 e9                	mov    %ebp,%ecx
    2d21:	48 83 c6 04          	add    $0x4,%rsi
    2d25:	29 c1                	sub    %eax,%ecx
    2d27:	89 d7                	mov    %edx,%edi
    2d29:	d3 ef                	shr    %cl,%edi
    2d2b:	89 c1                	mov    %eax,%ecx
    2d2d:	83 c0 08             	add    $0x8,%eax
    2d30:	d3 e2                	shl    %cl,%edx
    2d32:	09 d7                	or     %edx,%edi
    2d34:	89 7e fc             	mov    %edi,-0x4(%rsi)
    2d37:	83 f8 20             	cmp    $0x20,%eax
    2d3a:	75 e1                	jne    2d1d <decaes_128bit+0x7d>
    2d3c:	48 89 df             	mov    %rbx,%rdi
    2d3f:	e8 1c fb ff ff       	call   2860 <resubbytes>
    2d44:	4c 89 e6             	mov    %r12,%rsi
    2d47:	48 89 df             	mov    %rbx,%rdi
    2d4a:	e8 31 f6 ff ff       	call   2380 <addroundkey>
    2d4f:	49 8d 44 24 f0       	lea    -0x10(%r12),%rax
    2d54:	4d 39 e5             	cmp    %r12,%r13
    2d57:	74 07                	je     2d60 <decaes_128bit+0xc0>
    2d59:	49 89 c4             	mov    %rax,%r12
    2d5c:	eb b2                	jmp    2d10 <decaes_128bit+0x70>
    2d5e:	66 90                	xchg   %ax,%ax
    2d60:	48 83 c4 08          	add    $0x8,%rsp
    2d64:	5b                   	pop    %rbx
    2d65:	5d                   	pop    %rbp
    2d66:	41 5c                	pop    %r12
    2d68:	41 5d                	pop    %r13
    2d6a:	c3                   	ret    
    2d6b:	0f 1f 44 00 00       	nopl   0x0(%rax,%rax,1)

0000000000002d70 <get_v_mod1>:
    2d70:	f3 0f 1e fa          	endbr64 
    2d74:	41 56                	push   %r14
    2d76:	48 8d 35 d3 17 00 00 	lea    0x17d3(%rip),%rsi        # 4550 <RC+0x10>
    2d7d:	4c 8d 35 77 18 00 00 	lea    0x1877(%rip),%r14        # 45fb <RC+0xbb>
    2d84:	41 55                	push   %r13
    2d86:	4c 8d 2d 6b 18 00 00 	lea    0x186b(%rip),%r13        # 45f8 <RC+0xb8>
    2d8d:	41 54                	push   %r12
    2d8f:	49 89 fc             	mov    %rdi,%r12
    2d92:	bf 01 00 00 00       	mov    $0x1,%edi
    2d97:	55                   	push   %rbp
    2d98:	48 8d 2d 56 18 00 00 	lea    0x1856(%rip),%rbp        # 45f5 <RC+0xb5>
    2d9f:	53                   	push   %rbx
    2da0:	48 81 ec 50 02 00 00 	sub    $0x250,%rsp
    2da7:	64 48 8b 04 25 28 00 	mov    %fs:0x28,%rax
    2dae:	00 00 
    2db0:	48 89 84 24 48 02 00 	mov    %rax,0x248(%rsp)
    2db7:	00 
    2db8:	31 c0                	xor    %eax,%eax
    2dba:	48 8d 5c 24 30       	lea    0x30(%rsp),%rbx
    2dbf:	e8 5c e4 ff ff       	call   1220 <__printf_chk@plt>
    2dc4:	48 8d 74 24 28       	lea    0x28(%rsp),%rsi
    2dc9:	48 8d 3d 40 18 00 00 	lea    0x1840(%rip),%rdi        # 4610 <RC+0xd0>
    2dd0:	31 c0                	xor    %eax,%eax
    2dd2:	e8 69 e4 ff ff       	call   1240 <__isoc99_scanf@plt>
    2dd7:	48 8d 3d 0c 18 00 00 	lea    0x180c(%rip),%rdi        # 45ea <RC+0xaa>
    2dde:	e8 8d e3 ff ff       	call   1170 <puts@plt>
    2de3:	48 89 de             	mov    %rbx,%rsi
    2de6:	48 89 ef             	mov    %rbp,%rdi
    2de9:	31 c0                	xor    %eax,%eax
    2deb:	e8 50 e4 ff ff       	call   1240 <__isoc99_scanf@plt>
    2df0:	4c 89 ee             	mov    %r13,%rsi
    2df3:	48 89 df             	mov    %rbx,%rdi
    2df6:	e8 35 e4 ff ff       	call   1230 <fopen@plt>
    2dfb:	48 89 44 24 10       	mov    %rax,0x10(%rsp)
    2e00:	48 85 c0             	test   %rax,%rax
    2e03:	0f 84 26 02 00 00    	je     302f <get_v_mod1+0x2bf>
    2e09:	0f b6 44 24 28       	movzbl 0x28(%rsp),%eax
    2e0e:	83 e0 df             	and    $0xffffffdf,%eax
    2e11:	3c 45                	cmp    $0x45,%al
    2e13:	0f 85 17 01 00 00    	jne    2f30 <get_v_mod1+0x1c0>
    2e19:	48 8d 35 50 17 00 00 	lea    0x1750(%rip),%rsi        # 4570 <RC+0x30>
    2e20:	bf 01 00 00 00       	mov    $0x1,%edi
    2e25:	31 c0                	xor    %eax,%eax
    2e27:	e8 f4 e3 ff ff       	call   1220 <__printf_chk@plt>
    2e2c:	48 8d 74 24 0f       	lea    0xf(%rsp),%rsi
    2e31:	48 8d 3d d3 17 00 00 	lea    0x17d3(%rip),%rdi        # 460b <RC+0xcb>
    2e38:	31 c0                	xor    %eax,%eax
    2e3a:	e8 01 e4 ff ff       	call   1240 <__isoc99_scanf@plt>
    2e3f:	0f b6 44 24 0f       	movzbl 0xf(%rsp),%eax
    2e44:	83 e0 df             	and    $0xffffffdf,%eax
    2e47:	3c 59                	cmp    $0x59,%al
    2e49:	0f 84 c9 00 00 00    	je     2f18 <get_v_mod1+0x1a8>
    2e4f:	4c 8d b4 24 b0 00 00 	lea    0xb0(%rsp),%r14
    2e56:	00 
    2e57:	48 8d 3d 32 17 00 00 	lea    0x1732(%rip),%rdi        # 4590 <RC+0x50>
    2e5e:	e8 0d e3 ff ff       	call   1170 <puts@plt>
    2e63:	4c 89 f6             	mov    %r14,%rsi
    2e66:	48 89 ef             	mov    %rbp,%rdi
    2e69:	31 c0                	xor    %eax,%eax
    2e6b:	e8 d0 e3 ff ff       	call   1240 <__isoc99_scanf@plt>
    2e70:	bf 10 00 00 00       	mov    $0x10,%edi
    2e75:	e8 76 e3 ff ff       	call   11f0 <malloc@plt>
    2e7a:	4c 89 f7             	mov    %r14,%rdi
    2e7d:	49 89 c5             	mov    %rax,%r13
    2e80:	48 89 44 24 20       	mov    %rax,0x20(%rsp)
    2e85:	e8 16 e3 ff ff       	call   11a0 <strlen@plt>
    2e8a:	4c 89 ea             	mov    %r13,%rdx
    2e8d:	4c 89 f7             	mov    %r14,%rdi
    2e90:	89 c6                	mov    %eax,%esi
    2e92:	e8 f9 05 00 00       	call   3490 <base64_to_hex>
    2e97:	49 89 d8             	mov    %rbx,%r8
    2e9a:	ba 8a 00 00 00       	mov    $0x8a,%edx
    2e9f:	be 01 00 00 00       	mov    $0x1,%esi
    2ea4:	31 c0                	xor    %eax,%eax
    2ea6:	48 8d ac 24 b0 01 00 	lea    0x1b0(%rsp),%rbp
    2ead:	00 
    2eae:	48 8d 0d 5e 17 00 00 	lea    0x175e(%rip),%rcx        # 4613 <RC+0xd3>
    2eb5:	48 89 ef             	mov    %rbp,%rdi
    2eb8:	e8 b3 e3 ff ff       	call   1270 <__sprintf_chk@plt>
    2ebd:	48 8d 35 57 17 00 00 	lea    0x1757(%rip),%rsi        # 461b <RC+0xdb>
    2ec4:	48 89 ef             	mov    %rbp,%rdi
    2ec7:	e8 64 e3 ff ff       	call   1230 <fopen@plt>
    2ecc:	48 89 44 24 18       	mov    %rax,0x18(%rsp)
    2ed1:	66 0f 6f 44 24 10    	movdqa 0x10(%rsp),%xmm0
    2ed7:	66 0f 6f 4c 24 20    	movdqa 0x20(%rsp),%xmm1
    2edd:	41 0f 11 04 24       	movups %xmm0,(%r12)
    2ee2:	41 0f 11 4c 24 10    	movups %xmm1,0x10(%r12)
    2ee8:	48 8b 84 24 48 02 00 	mov    0x248(%rsp),%rax
    2eef:	00 
    2ef0:	64 48 2b 04 25 28 00 	sub    %fs:0x28,%rax
    2ef7:	00 00 
    2ef9:	0f 85 2b 01 00 00    	jne    302a <get_v_mod1+0x2ba>
    2eff:	48 81 c4 50 02 00 00 	add    $0x250,%rsp
    2f06:	4c 89 e0             	mov    %r12,%rax
    2f09:	5b                   	pop    %rbx
    2f0a:	5d                   	pop    %rbp
    2f0b:	41 5c                	pop    %r12
    2f0d:	41 5d                	pop    %r13
    2f0f:	41 5e                	pop    %r14
    2f11:	c3                   	ret    
    2f12:	66 0f 1f 44 00 00    	nopw   0x0(%rax,%rax,1)
    2f18:	31 c0                	xor    %eax,%eax
    2f1a:	e8 21 e7 ff ff       	call   1640 <gen_key>
    2f1f:	48 89 44 24 20       	mov    %rax,0x20(%rsp)
    2f24:	e9 6e ff ff ff       	jmp    2e97 <get_v_mod1+0x127>
    2f29:	0f 1f 80 00 00 00 00 	nopl   0x0(%rax)
    2f30:	48 8d 35 89 16 00 00 	lea    0x1689(%rip),%rsi        # 45c0 <RC+0x80>
    2f37:	bf 01 00 00 00       	mov    $0x1,%edi
    2f3c:	31 c0                	xor    %eax,%eax
    2f3e:	e8 dd e2 ff ff       	call   1220 <__printf_chk@plt>
    2f43:	48 8d 74 24 0f       	lea    0xf(%rsp),%rsi
    2f48:	48 8d 3d bc 16 00 00 	lea    0x16bc(%rip),%rdi        # 460b <RC+0xcb>
    2f4f:	31 c0                	xor    %eax,%eax
    2f51:	e8 ea e2 ff ff       	call   1240 <__isoc99_scanf@plt>
    2f56:	0f b6 44 24 0f       	movzbl 0xf(%rsp),%eax
    2f5b:	83 e0 df             	and    $0xffffffdf,%eax
    2f5e:	3c 59                	cmp    $0x59,%al
    2f60:	0f 85 8a 00 00 00    	jne    2ff0 <get_v_mod1+0x280>
    2f66:	48 8d 3d b2 16 00 00 	lea    0x16b2(%rip),%rdi        # 461f <RC+0xdf>
    2f6d:	4c 8d ac 24 30 01 00 	lea    0x130(%rsp),%r13
    2f74:	00 
    2f75:	e8 f6 e1 ff ff       	call   1170 <puts@plt>
    2f7a:	4c 89 ee             	mov    %r13,%rsi
    2f7d:	48 89 ef             	mov    %rbp,%rdi
    2f80:	31 c0                	xor    %eax,%eax
    2f82:	e8 b9 e2 ff ff       	call   1240 <__isoc99_scanf@plt>
    2f87:	48 8d 35 8d 16 00 00 	lea    0x168d(%rip),%rsi        # 461b <RC+0xdb>
    2f8e:	4c 89 ef             	mov    %r13,%rdi
    2f91:	e8 9a e2 ff ff       	call   1230 <fopen@plt>
    2f96:	4c 8d b4 24 b0 00 00 	lea    0xb0(%rsp),%r14
    2f9d:	00 
    2f9e:	48 8d 3d eb 15 00 00 	lea    0x15eb(%rip),%rdi        # 4590 <RC+0x50>
    2fa5:	48 89 44 24 18       	mov    %rax,0x18(%rsp)
    2faa:	e8 c1 e1 ff ff       	call   1170 <puts@plt>
    2faf:	4c 89 f6             	mov    %r14,%rsi
    2fb2:	48 89 ef             	mov    %rbp,%rdi
    2fb5:	31 c0                	xor    %eax,%eax
    2fb7:	e8 84 e2 ff ff       	call   1240 <__isoc99_scanf@plt>
    2fbc:	bf 10 00 00 00       	mov    $0x10,%edi
    2fc1:	e8 2a e2 ff ff       	call   11f0 <malloc@plt>
    2fc6:	4c 89 f7             	mov    %r14,%rdi
    2fc9:	49 89 c5             	mov    %rax,%r13
    2fcc:	48 89 44 24 20       	mov    %rax,0x20(%rsp)
    2fd1:	e8 ca e1 ff ff       	call   11a0 <strlen@plt>
    2fd6:	4c 89 ea             	mov    %r13,%rdx
    2fd9:	4c 89 f7             	mov    %r14,%rdi
    2fdc:	89 c6                	mov    %eax,%esi
    2fde:	e8 ad 04 00 00       	call   3490 <base64_to_hex>
    2fe3:	e9 e9 fe ff ff       	jmp    2ed1 <get_v_mod1+0x161>
    2fe8:	0f 1f 84 00 00 00 00 	nopl   0x0(%rax,%rax,1)
    2fef:	00 
    2ff0:	49 89 d8             	mov    %rbx,%r8
    2ff3:	ba 8a 00 00 00       	mov    $0x8a,%edx
    2ff8:	be 01 00 00 00       	mov    $0x1,%esi
    2ffd:	31 c0                	xor    %eax,%eax
    2fff:	4c 8d ac 24 b0 01 00 	lea    0x1b0(%rsp),%r13
    3006:	00 
    3007:	48 8d 0d 21 16 00 00 	lea    0x1621(%rip),%rcx        # 462f <RC+0xef>
    300e:	4c 89 ef             	mov    %r13,%rdi
    3011:	e8 5a e2 ff ff       	call   1270 <__sprintf_chk@plt>
    3016:	48 8d 35 fe 15 00 00 	lea    0x15fe(%rip),%rsi        # 461b <RC+0xdb>
    301d:	4c 89 ef             	mov    %r13,%rdi
    3020:	e8 0b e2 ff ff       	call   1230 <fopen@plt>
    3025:	e9 6c ff ff ff       	jmp    2f96 <get_v_mod1+0x226>
    302a:	e8 81 e1 ff ff       	call   11b0 <__stack_chk_fail@plt>
    302f:	4c 89 f7             	mov    %r14,%rdi
    3032:	e8 39 e1 ff ff       	call   1170 <puts@plt>
    3037:	e9 a7 fd ff ff       	jmp    2de3 <get_v_mod1+0x73>
    303c:	0f 1f 40 00          	nopl   0x0(%rax)

0000000000003040 <get_v_mod2>:
    3040:	f3 0f 1e fa          	endbr64 
    3044:	41 57                	push   %r15
    3046:	41 56                	push   %r14
    3048:	41 89 f6             	mov    %esi,%r14d
    304b:	41 55                	push   %r13
    304d:	41 54                	push   %r12
    304f:	49 89 fc             	mov    %rdi,%r12
    3052:	55                   	push   %rbp
    3053:	53                   	push   %rbx
    3054:	48 89 d3             	mov    %rdx,%rbx
    3057:	48 81 ec b8 00 00 00 	sub    $0xb8,%rsp
    305e:	64 48 8b 04 25 28 00 	mov    %fs:0x28,%rax
    3065:	00 00 
    3067:	48 89 84 24 a8 00 00 	mov    %rax,0xa8(%rsp)
    306e:	00 
    306f:	48 8b 42 08          	mov    0x8(%rdx),%rax
    3073:	80 38 2d             	cmpb   $0x2d,(%rax)
    3076:	44 0f b6 78 01       	movzbl 0x1(%rax),%r15d
    307b:	75 0a                	jne    3087 <get_v_mod2+0x47>
    307d:	41 80 ff 65          	cmp    $0x65,%r15b
    3081:	0f 84 a9 00 00 00    	je     3130 <get_v_mod2+0xf0>
    3087:	48 8b 7b 10          	mov    0x10(%rbx),%rdi
    308b:	48 8d 35 66 15 00 00 	lea    0x1566(%rip),%rsi        # 45f8 <RC+0xb8>
    3092:	e8 99 e1 ff ff       	call   1230 <fopen@plt>
    3097:	48 89 c5             	mov    %rax,%rbp
    309a:	48 85 c0             	test   %rax,%rax
    309d:	0f 84 62 01 00 00    	je     3205 <get_v_mod2+0x1c5>
    30a3:	bf 10 00 00 00       	mov    $0x10,%edi
    30a8:	e8 43 e1 ff ff       	call   11f0 <malloc@plt>
    30ad:	48 8b 7b 18          	mov    0x18(%rbx),%rdi
    30b1:	49 89 c5             	mov    %rax,%r13
    30b4:	48 89 7c 24 08       	mov    %rdi,0x8(%rsp)
    30b9:	e8 e2 e0 ff ff       	call   11a0 <strlen@plt>
    30be:	48 8b 7c 24 08       	mov    0x8(%rsp),%rdi
    30c3:	4c 89 ea             	mov    %r13,%rdx
    30c6:	89 c6                	mov    %eax,%esi
    30c8:	e8 c3 03 00 00       	call   3490 <base64_to_hex>
    30cd:	41 83 fe 04          	cmp    $0x4,%r14d
    30d1:	0f 84 19 01 00 00    	je     31f0 <get_v_mod2+0x1b0>
    30d7:	48 8b 7b 20          	mov    0x20(%rbx),%rdi
    30db:	48 8d 35 39 15 00 00 	lea    0x1539(%rip),%rsi        # 461b <RC+0xdb>
    30e2:	e8 49 e1 ff ff       	call   1230 <fopen@plt>
    30e7:	49 89 2c 24          	mov    %rbp,(%r12)
    30eb:	49 89 44 24 08       	mov    %rax,0x8(%r12)
    30f0:	4d 89 6c 24 10       	mov    %r13,0x10(%r12)
    30f5:	45 88 7c 24 18       	mov    %r15b,0x18(%r12)
    30fa:	48 8b 84 24 a8 00 00 	mov    0xa8(%rsp),%rax
    3101:	00 
    3102:	64 48 2b 04 25 28 00 	sub    %fs:0x28,%rax
    3109:	00 00 
    310b:	0f 85 24 01 00 00    	jne    3235 <get_v_mod2+0x1f5>
    3111:	48 81 c4 b8 00 00 00 	add    $0xb8,%rsp
    3118:	4c 89 e0             	mov    %r12,%rax
    311b:	5b                   	pop    %rbx
    311c:	5d                   	pop    %rbp
    311d:	41 5c                	pop    %r12
    311f:	41 5d                	pop    %r13
    3121:	41 5e                	pop    %r14
    3123:	41 5f                	pop    %r15
    3125:	c3                   	ret    
    3126:	66 2e 0f 1f 84 00 00 	cs nopw 0x0(%rax,%rax,1)
    312d:	00 00 00 
    3130:	80 78 02 00          	cmpb   $0x0,0x2(%rax)
    3134:	0f 85 4d ff ff ff    	jne    3087 <get_v_mod2+0x47>
    313a:	48 8b 7a 10          	mov    0x10(%rdx),%rdi
    313e:	48 8d 35 b3 14 00 00 	lea    0x14b3(%rip),%rsi        # 45f8 <RC+0xb8>
    3145:	e8 e6 e0 ff ff       	call   1230 <fopen@plt>
    314a:	48 89 c5             	mov    %rax,%rbp
    314d:	48 85 c0             	test   %rax,%rax
    3150:	0f 84 af 00 00 00    	je     3205 <get_v_mod2+0x1c5>
    3156:	4c 8b 43 18          	mov    0x18(%rbx),%r8
    315a:	41 80 38 47          	cmpb   $0x47,(%r8)
    315e:	75 50                	jne    31b0 <get_v_mod2+0x170>
    3160:	41 80 78 01 00       	cmpb   $0x0,0x1(%r8)
    3165:	75 49                	jne    31b0 <get_v_mod2+0x170>
    3167:	31 c0                	xor    %eax,%eax
    3169:	e8 d2 e4 ff ff       	call   1640 <gen_key>
    316e:	41 83 fe 04          	cmp    $0x4,%r14d
    3172:	4c 8d 74 24 10       	lea    0x10(%rsp),%r14
    3177:	49 89 c5             	mov    %rax,%r13
    317a:	74 6a                	je     31e6 <get_v_mod2+0x1a6>
    317c:	4c 8b 43 20          	mov    0x20(%rbx),%r8
    3180:	48 8d 0d 8c 14 00 00 	lea    0x148c(%rip),%rcx        # 4613 <RC+0xd3>
    3187:	4c 89 f7             	mov    %r14,%rdi
    318a:	ba 8a 00 00 00       	mov    $0x8a,%edx
    318f:	be 01 00 00 00       	mov    $0x1,%esi
    3194:	31 c0                	xor    %eax,%eax
    3196:	e8 d5 e0 ff ff       	call   1270 <__sprintf_chk@plt>
    319b:	48 8d 35 79 14 00 00 	lea    0x1479(%rip),%rsi        # 461b <RC+0xdb>
    31a2:	4c 89 f7             	mov    %r14,%rdi
    31a5:	e8 86 e0 ff ff       	call   1230 <fopen@plt>
    31aa:	e9 38 ff ff ff       	jmp    30e7 <get_v_mod2+0xa7>
    31af:	90                   	nop
    31b0:	bf 10 00 00 00       	mov    $0x10,%edi
    31b5:	4c 89 44 24 08       	mov    %r8,0x8(%rsp)
    31ba:	e8 31 e0 ff ff       	call   11f0 <malloc@plt>
    31bf:	48 8b 7c 24 08       	mov    0x8(%rsp),%rdi
    31c4:	49 89 c5             	mov    %rax,%r13
    31c7:	e8 d4 df ff ff       	call   11a0 <strlen@plt>
    31cc:	48 8b 7c 24 08       	mov    0x8(%rsp),%rdi
    31d1:	4c 89 ea             	mov    %r13,%rdx
    31d4:	89 c6                	mov    %eax,%esi
    31d6:	e8 b5 02 00 00       	call   3490 <base64_to_hex>
    31db:	41 83 fe 04          	cmp    $0x4,%r14d
    31df:	4c 8d 74 24 10       	lea    0x10(%rsp),%r14
    31e4:	75 96                	jne    317c <get_v_mod2+0x13c>
    31e6:	4c 8b 43 10          	mov    0x10(%rbx),%r8
    31ea:	eb 94                	jmp    3180 <get_v_mod2+0x140>
    31ec:	0f 1f 40 00          	nopl   0x0(%rax)
    31f0:	4c 8b 43 10          	mov    0x10(%rbx),%r8
    31f4:	4c 8d 74 24 10       	lea    0x10(%rsp),%r14
    31f9:	48 8d 0d 37 14 00 00 	lea    0x1437(%rip),%rcx        # 4637 <RC+0xf7>
    3200:	e9 82 ff ff ff       	jmp    3187 <get_v_mod2+0x147>
    3205:	48 8d 3d ef 13 00 00 	lea    0x13ef(%rip),%rdi        # 45fb <RC+0xbb>
    320c:	e8 5f df ff ff       	call   1170 <puts@plt>
    3211:	49 c7 04 24 00 00 00 	movq   $0x0,(%r12)
    3218:	00 
    3219:	49 c7 44 24 08 00 00 	movq   $0x0,0x8(%r12)
    3220:	00 00 
    3222:	49 c7 44 24 10 00 00 	movq   $0x0,0x10(%r12)
    3229:	00 00 
    322b:	45 88 7c 24 18       	mov    %r15b,0x18(%r12)
    3230:	e9 c5 fe ff ff       	jmp    30fa <get_v_mod2+0xba>
    3235:	e8 76 df ff ff       	call   11b0 <__stack_chk_fail@plt>
    323a:	66 0f 1f 44 00 00    	nopw   0x0(%rax,%rax,1)

0000000000003240 <turn_base64>:
    3240:	f3 0f 1e fa          	endbr64 
    3244:	40 80 ff 19          	cmp    $0x19,%dil
    3248:	77 06                	ja     3250 <turn_base64+0x10>
    324a:	8d 47 41             	lea    0x41(%rdi),%eax
    324d:	c3                   	ret    
    324e:	66 90                	xchg   %ax,%ax
    3250:	40 80 ff 33          	cmp    $0x33,%dil
    3254:	77 0a                	ja     3260 <turn_base64+0x20>
    3256:	8d 47 47             	lea    0x47(%rdi),%eax
    3259:	c3                   	ret    
    325a:	66 0f 1f 44 00 00    	nopw   0x0(%rax,%rax,1)
    3260:	40 80 ff 3d          	cmp    $0x3d,%dil
    3264:	77 0a                	ja     3270 <turn_base64+0x30>
    3266:	8d 47 fc             	lea    -0x4(%rdi),%eax
    3269:	c3                   	ret    
    326a:	66 0f 1f 44 00 00    	nopw   0x0(%rax,%rax,1)
    3270:	40 80 ff 3e          	cmp    $0x3e,%dil
    3274:	0f 95 c0             	setne  %al
    3277:	8d 04 85 2b 00 00 00 	lea    0x2b(,%rax,4),%eax
    327e:	c3                   	ret    
    327f:	90                   	nop

0000000000003280 <turn_hex>:
    3280:	f3 0f 1e fa          	endbr64 
    3284:	8d 47 bf             	lea    -0x41(%rdi),%eax
    3287:	3c 19                	cmp    $0x19,%al
    3289:	76 26                	jbe    32b1 <turn_hex+0x31>
    328b:	8d 47 9f             	lea    -0x61(%rdi),%eax
    328e:	3c 19                	cmp    $0x19,%al
    3290:	77 0e                	ja     32a0 <turn_hex+0x20>
    3292:	8d 47 b9             	lea    -0x47(%rdi),%eax
    3295:	c3                   	ret    
    3296:	66 2e 0f 1f 84 00 00 	cs nopw 0x0(%rax,%rax,1)
    329d:	00 00 00 
    32a0:	8d 47 d0             	lea    -0x30(%rdi),%eax
    32a3:	3c 09                	cmp    $0x9,%al
    32a5:	76 11                	jbe    32b8 <turn_hex+0x38>
    32a7:	40 80 ff 2b          	cmp    $0x2b,%dil
    32ab:	0f 95 c0             	setne  %al
    32ae:	83 c0 3e             	add    $0x3e,%eax
    32b1:	c3                   	ret    
    32b2:	66 0f 1f 44 00 00    	nopw   0x0(%rax,%rax,1)
    32b8:	8d 47 04             	lea    0x4(%rdi),%eax
    32bb:	c3                   	ret    
    32bc:	0f 1f 40 00          	nopl   0x0(%rax)

00000000000032c0 <hex_to_base64>:
    32c0:	f3 0f 1e fa          	endbr64 
    32c4:	85 f6                	test   %esi,%esi
    32c6:	0f 8e 9c 01 00 00    	jle    3468 <hex_to_base64+0x1a8>
    32cc:	44 0f b6 07          	movzbl (%rdi),%r8d
    32d0:	44 8d 56 ff          	lea    -0x1(%rsi),%r10d
    32d4:	55                   	push   %rbp
    32d5:	b8 01 00 00 00       	mov    $0x1,%eax
    32da:	53                   	push   %rbx
    32db:	48 89 d5             	mov    %rdx,%rbp
    32de:	49 01 fa             	add    %rdi,%r10
    32e1:	45 31 c9             	xor    %r9d,%r9d
    32e4:	41 c1 e0 10          	shl    $0x10,%r8d
    32e8:	bb 02 00 00 00       	mov    $0x2,%ebx
    32ed:	41 bb ab aa aa aa    	mov    $0xaaaaaaab,%r11d
    32f3:	eb 07                	jmp    32fc <hex_to_base64+0x3c>
    32f5:	0f 1f 00             	nopl   (%rax)
    32f8:	48 83 c7 01          	add    $0x1,%rdi
    32fc:	49 39 fa             	cmp    %rdi,%r10
    32ff:	0f 84 8b 00 00 00    	je     3390 <hex_to_base64+0xd0>
    3305:	89 d9                	mov    %ebx,%ecx
    3307:	0f b6 57 01          	movzbl 0x1(%rdi),%edx
    330b:	29 c1                	sub    %eax,%ecx
    330d:	83 c0 01             	add    $0x1,%eax
    3310:	c1 e1 03             	shl    $0x3,%ecx
    3313:	d3 e2                	shl    %cl,%edx
    3315:	41 09 d0             	or     %edx,%r8d
    3318:	48 89 c2             	mov    %rax,%rdx
    331b:	49 0f af c3          	imul   %r11,%rax
    331f:	48 c1 e8 21          	shr    $0x21,%rax
    3323:	8d 0c 40             	lea    (%rax,%rax,2),%ecx
    3326:	89 d0                	mov    %edx,%eax
    3328:	29 c8                	sub    %ecx,%eax
    332a:	75 cc                	jne    32f8 <hex_to_base64+0x38>
    332c:	49 63 f1             	movslq %r9d,%rsi
    332f:	b9 12 00 00 00       	mov    $0x12,%ecx
    3334:	48 01 ee             	add    %rbp,%rsi
    3337:	44 89 c2             	mov    %r8d,%edx
    333a:	d3 ea                	shr    %cl,%edx
    333c:	83 e2 3f             	and    $0x3f,%edx
    333f:	83 fa 19             	cmp    $0x19,%edx
    3342:	7f 1c                	jg     3360 <hex_to_base64+0xa0>
    3344:	83 c2 41             	add    $0x41,%edx
    3347:	83 e9 06             	sub    $0x6,%ecx
    334a:	88 16                	mov    %dl,(%rsi)
    334c:	48 83 c6 01          	add    $0x1,%rsi
    3350:	83 f9 fa             	cmp    $0xfffffffa,%ecx
    3353:	75 e2                	jne    3337 <hex_to_base64+0x77>
    3355:	41 83 c1 04          	add    $0x4,%r9d
    3359:	45 31 c0             	xor    %r8d,%r8d
    335c:	eb 9a                	jmp    32f8 <hex_to_base64+0x38>
    335e:	66 90                	xchg   %ax,%ax
    3360:	83 fa 33             	cmp    $0x33,%edx
    3363:	7f 0b                	jg     3370 <hex_to_base64+0xb0>
    3365:	83 c2 47             	add    $0x47,%edx
    3368:	eb dd                	jmp    3347 <hex_to_base64+0x87>
    336a:	66 0f 1f 44 00 00    	nopw   0x0(%rax,%rax,1)
    3370:	80 fa 3d             	cmp    $0x3d,%dl
    3373:	77 0b                	ja     3380 <hex_to_base64+0xc0>
    3375:	83 ea 04             	sub    $0x4,%edx
    3378:	eb cd                	jmp    3347 <hex_to_base64+0x87>
    337a:	66 0f 1f 44 00 00    	nopw   0x0(%rax,%rax,1)
    3380:	80 fa 3e             	cmp    $0x3e,%dl
    3383:	0f 95 c2             	setne  %dl
    3386:	8d 14 95 2b 00 00 00 	lea    0x2b(,%rdx,4),%edx
    338d:	eb b8                	jmp    3347 <hex_to_base64+0x87>
    338f:	90                   	nop
    3390:	83 f8 01             	cmp    $0x1,%eax
    3393:	74 5b                	je     33f0 <hex_to_base64+0x130>
    3395:	83 f8 02             	cmp    $0x2,%eax
    3398:	74 06                	je     33a0 <hex_to_base64+0xe0>
    339a:	5b                   	pop    %rbx
    339b:	5d                   	pop    %rbp
    339c:	c3                   	ret    
    339d:	0f 1f 00             	nopl   (%rax)
    33a0:	41 83 c1 01          	add    $0x1,%r9d
    33a4:	b9 12 00 00 00       	mov    $0x12,%ecx
    33a9:	4d 63 c9             	movslq %r9d,%r9
    33ac:	44 89 c0             	mov    %r8d,%eax
    33af:	49 63 d1             	movslq %r9d,%rdx
    33b2:	d3 e8                	shr    %cl,%eax
    33b4:	83 e0 3f             	and    $0x3f,%eax
    33b7:	83 f8 19             	cmp    $0x19,%eax
    33ba:	7f 1c                	jg     33d8 <hex_to_base64+0x118>
    33bc:	83 c0 41             	add    $0x41,%eax
    33bf:	42 88 44 0d ff       	mov    %al,-0x1(%rbp,%r9,1)
    33c4:	49 83 c1 01          	add    $0x1,%r9
    33c8:	83 e9 06             	sub    $0x6,%ecx
    33cb:	75 df                	jne    33ac <hex_to_base64+0xec>
    33cd:	c6 44 15 00 3d       	movb   $0x3d,0x0(%rbp,%rdx,1)
    33d2:	5b                   	pop    %rbx
    33d3:	5d                   	pop    %rbp
    33d4:	c3                   	ret    
    33d5:	0f 1f 00             	nopl   (%rax)
    33d8:	83 f8 33             	cmp    $0x33,%eax
    33db:	7e 73                	jle    3450 <hex_to_base64+0x190>
    33dd:	3c 3d                	cmp    $0x3d,%al
    33df:	0f 87 84 00 00 00    	ja     3469 <hex_to_base64+0x1a9>
    33e5:	83 e8 04             	sub    $0x4,%eax
    33e8:	eb d5                	jmp    33bf <hex_to_base64+0xff>
    33ea:	66 0f 1f 44 00 00    	nopw   0x0(%rax,%rax,1)
    33f0:	4d 63 c9             	movslq %r9d,%r9
    33f3:	31 c0                	xor    %eax,%eax
    33f5:	b9 12 00 00 00       	mov    $0x12,%ecx
    33fa:	49 01 e9             	add    %rbp,%r9
    33fd:	48 83 f8 01          	cmp    $0x1,%rax
    3401:	77 21                	ja     3424 <hex_to_base64+0x164>
    3403:	44 89 c2             	mov    %r8d,%edx
    3406:	d3 ea                	shr    %cl,%edx
    3408:	83 e2 3f             	and    $0x3f,%edx
    340b:	83 fa 19             	cmp    $0x19,%edx
    340e:	7f 28                	jg     3438 <hex_to_base64+0x178>
    3410:	83 c2 41             	add    $0x41,%edx
    3413:	41 88 14 01          	mov    %dl,(%r9,%rax,1)
    3417:	48 83 c0 01          	add    $0x1,%rax
    341b:	83 e9 06             	sub    $0x6,%ecx
    341e:	48 83 f8 01          	cmp    $0x1,%rax
    3422:	76 df                	jbe    3403 <hex_to_base64+0x143>
    3424:	41 c6 04 01 3d       	movb   $0x3d,(%r9,%rax,1)
    3429:	48 83 f8 03          	cmp    $0x3,%rax
    342d:	75 e8                	jne    3417 <hex_to_base64+0x157>
    342f:	5b                   	pop    %rbx
    3430:	5d                   	pop    %rbp
    3431:	c3                   	ret    
    3432:	66 0f 1f 44 00 00    	nopw   0x0(%rax,%rax,1)
    3438:	83 fa 33             	cmp    $0x33,%edx
    343b:	7e 23                	jle    3460 <hex_to_base64+0x1a0>
    343d:	80 fa 3d             	cmp    $0x3d,%dl
    3440:	77 38                	ja     347a <hex_to_base64+0x1ba>
    3442:	83 ea 04             	sub    $0x4,%edx
    3445:	eb cc                	jmp    3413 <hex_to_base64+0x153>
    3447:	66 0f 1f 84 00 00 00 	nopw   0x0(%rax,%rax,1)
    344e:	00 00 
    3450:	83 c0 47             	add    $0x47,%eax
    3453:	e9 67 ff ff ff       	jmp    33bf <hex_to_base64+0xff>
    3458:	0f 1f 84 00 00 00 00 	nopl   0x0(%rax,%rax,1)
    345f:	00 
    3460:	83 c2 47             	add    $0x47,%edx
    3463:	eb ae                	jmp    3413 <hex_to_base64+0x153>
    3465:	0f 1f 00             	nopl   (%rax)
    3468:	c3                   	ret    
    3469:	3c 3e                	cmp    $0x3e,%al
    346b:	0f 95 c0             	setne  %al
    346e:	8d 04 85 2b 00 00 00 	lea    0x2b(,%rax,4),%eax
    3475:	e9 45 ff ff ff       	jmp    33bf <hex_to_base64+0xff>
    347a:	80 fa 3e             	cmp    $0x3e,%dl
    347d:	0f 95 c2             	setne  %dl
    3480:	8d 14 95 2b 00 00 00 	lea    0x2b(,%rdx,4),%edx
    3487:	eb 8a                	jmp    3413 <hex_to_base64+0x153>
    3489:	0f 1f 80 00 00 00 00 	nopl   0x0(%rax)

0000000000003490 <base64_to_hex>:
    3490:	f3 0f 1e fa          	endbr64 
    3494:	85 f6                	test   %esi,%esi
    3496:	0f 8e 24 01 00 00    	jle    35c0 <base64_to_hex+0x130>
    349c:	8d 46 ff             	lea    -0x1(%rsi),%eax
    349f:	41 56                	push   %r14
    34a1:	49 89 d1             	mov    %rdx,%r9
    34a4:	31 f6                	xor    %esi,%esi
    34a6:	53                   	push   %rbx
    34a7:	4c 8d 44 07 01       	lea    0x1(%rdi,%rax,1),%r8
    34ac:	31 db                	xor    %ebx,%ebx
    34ae:	31 d2                	xor    %edx,%edx
    34b0:	45 31 d2             	xor    %r10d,%r10d
    34b3:	41 bb 03 00 00 00    	mov    $0x3,%r11d
    34b9:	eb 2e                	jmp    34e9 <base64_to_hex+0x59>
    34bb:	0f 1f 44 00 00       	nopl   0x0(%rax,%rax,1)
    34c0:	8d 41 bf             	lea    -0x41(%rcx),%eax
    34c3:	3c 19                	cmp    $0x19,%al
    34c5:	77 59                	ja     3520 <base64_to_hex+0x90>
    34c7:	0f b6 c0             	movzbl %al,%eax
    34ca:	44 89 d9             	mov    %r11d,%ecx
    34cd:	29 d1                	sub    %edx,%ecx
    34cf:	83 c2 01             	add    $0x1,%edx
    34d2:	8d 0c 49             	lea    (%rcx,%rcx,2),%ecx
    34d5:	01 c9                	add    %ecx,%ecx
    34d7:	d3 e0                	shl    %cl,%eax
    34d9:	09 c3                	or     %eax,%ebx
    34db:	83 e2 03             	and    $0x3,%edx
    34de:	74 50                	je     3530 <base64_to_hex+0xa0>
    34e0:	48 83 c7 01          	add    $0x1,%rdi
    34e4:	49 39 f8             	cmp    %rdi,%r8
    34e7:	74 15                	je     34fe <base64_to_hex+0x6e>
    34e9:	0f b6 0f             	movzbl (%rdi),%ecx
    34ec:	80 f9 3d             	cmp    $0x3d,%cl
    34ef:	75 cf                	jne    34c0 <base64_to_hex+0x30>
    34f1:	48 83 c7 01          	add    $0x1,%rdi
    34f5:	41 83 c2 01          	add    $0x1,%r10d
    34f9:	49 39 f8             	cmp    %rdi,%r8
    34fc:	75 eb                	jne    34e9 <base64_to_hex+0x59>
    34fe:	41 83 fa 01          	cmp    $0x1,%r10d
    3502:	0f 84 a8 00 00 00    	je     35b0 <base64_to_hex+0x120>
    3508:	41 83 fa 02          	cmp    $0x2,%r10d
    350c:	0f 84 7e 00 00 00    	je     3590 <base64_to_hex+0x100>
    3512:	5b                   	pop    %rbx
    3513:	41 5e                	pop    %r14
    3515:	c3                   	ret    
    3516:	66 2e 0f 1f 84 00 00 	cs nopw 0x0(%rax,%rax,1)
    351d:	00 00 00 
    3520:	8d 41 9f             	lea    -0x61(%rcx),%eax
    3523:	3c 19                	cmp    $0x19,%al
    3525:	77 39                	ja     3560 <base64_to_hex+0xd0>
    3527:	83 e9 47             	sub    $0x47,%ecx
    352a:	0f b6 c1             	movzbl %cl,%eax
    352d:	eb 9b                	jmp    34ca <base64_to_hex+0x3a>
    352f:	90                   	nop
    3530:	89 d9                	mov    %ebx,%ecx
    3532:	48 63 c6             	movslq %esi,%rax
    3535:	44 8d 76 02          	lea    0x2(%rsi),%r14d
    3539:	c1 e9 10             	shr    $0x10,%ecx
    353c:	41 88 0c 01          	mov    %cl,(%r9,%rax,1)
    3540:	8d 4e 01             	lea    0x1(%rsi),%ecx
    3543:	0f b6 c7             	movzbl %bh,%eax
    3546:	83 c6 03             	add    $0x3,%esi
    3549:	48 63 c9             	movslq %ecx,%rcx
    354c:	41 88 04 09          	mov    %al,(%r9,%rcx,1)
    3550:	49 63 c6             	movslq %r14d,%rax
    3553:	41 88 1c 01          	mov    %bl,(%r9,%rax,1)
    3557:	31 db                	xor    %ebx,%ebx
    3559:	eb 85                	jmp    34e0 <base64_to_hex+0x50>
    355b:	0f 1f 44 00 00       	nopl   0x0(%rax,%rax,1)
    3560:	8d 41 d0             	lea    -0x30(%rcx),%eax
    3563:	3c 09                	cmp    $0x9,%al
    3565:	77 11                	ja     3578 <base64_to_hex+0xe8>
    3567:	83 c1 04             	add    $0x4,%ecx
    356a:	0f b6 c1             	movzbl %cl,%eax
    356d:	e9 58 ff ff ff       	jmp    34ca <base64_to_hex+0x3a>
    3572:	66 0f 1f 44 00 00    	nopw   0x0(%rax,%rax,1)
    3578:	31 c0                	xor    %eax,%eax
    357a:	80 f9 2b             	cmp    $0x2b,%cl
    357d:	0f 95 c0             	setne  %al
    3580:	83 c0 3e             	add    $0x3e,%eax
    3583:	e9 42 ff ff ff       	jmp    34ca <base64_to_hex+0x3a>
    3588:	0f 1f 84 00 00 00 00 	nopl   0x0(%rax,%rax,1)
    358f:	00 
    3590:	89 da                	mov    %ebx,%edx
    3592:	48 63 c6             	movslq %esi,%rax
    3595:	83 c6 01             	add    $0x1,%esi
    3598:	c1 ea 10             	shr    $0x10,%edx
    359b:	48 63 f6             	movslq %esi,%rsi
    359e:	41 88 14 01          	mov    %dl,(%r9,%rax,1)
    35a2:	0f b6 c7             	movzbl %bh,%eax
    35a5:	41 88 04 31          	mov    %al,(%r9,%rsi,1)
    35a9:	5b                   	pop    %rbx
    35aa:	41 5e                	pop    %r14
    35ac:	c3                   	ret    
    35ad:	0f 1f 00             	nopl   (%rax)
    35b0:	c1 eb 10             	shr    $0x10,%ebx
    35b3:	48 63 f6             	movslq %esi,%rsi
    35b6:	41 88 1c 31          	mov    %bl,(%r9,%rsi,1)
    35ba:	5b                   	pop    %rbx
    35bb:	41 5e                	pop    %r14
    35bd:	c3                   	ret    
    35be:	66 90                	xchg   %ax,%ax
    35c0:	c3                   	ret    
    35c1:	66 2e 0f 1f 84 00 00 	cs nopw 0x0(%rax,%rax,1)
    35c8:	00 00 00 
    35cb:	0f 1f 44 00 00       	nopl   0x0(%rax,%rax,1)

00000000000035d0 <read_buffer>:
    35d0:	f3 0f 1e fa          	endbr64 
    35d4:	55                   	push   %rbp
    35d5:	48 89 f9             	mov    %rdi,%rcx
    35d8:	48 89 f5             	mov    %rsi,%rbp
    35db:	53                   	push   %rbx
    35dc:	48 89 d3             	mov    %rdx,%rbx
    35df:	48 83 ec 08          	sub    $0x8,%rsp
    35e3:	8b 92 04 00 00 01    	mov    0x1000004(%rdx),%edx
    35e9:	81 fa 00 00 10 00    	cmp    $0x100000,%edx
    35ef:	74 09                	je     35fa <read_buffer+0x2a>
    35f1:	80 bb 09 00 00 01 00 	cmpb   $0x0,0x1000009(%rbx)
    35f8:	75 5e                	jne    3658 <read_buffer+0x88>
    35fa:	ba 00 00 00 01       	mov    $0x1000000,%edx
    35ff:	be 01 00 00 00       	mov    $0x1,%esi
    3604:	48 89 df             	mov    %rbx,%rdi
    3607:	e8 74 db ff ff       	call   1180 <fread@plt>
    360c:	c6 83 09 00 00 01 01 	movb   $0x1,0x1000009(%rbx)
    3613:	48 89 de             	mov    %rbx,%rsi
    3616:	c7 83 04 00 00 01 00 	movl   $0x0,0x1000004(%rbx)
    361d:	00 00 00 
    3620:	89 c2                	mov    %eax,%edx
    3622:	c1 e8 04             	shr    $0x4,%eax
    3625:	83 e2 0f             	and    $0xf,%edx
    3628:	89 83 00 00 00 01    	mov    %eax,0x1000000(%rbx)
    362e:	88 93 08 00 00 01    	mov    %dl,0x1000008(%rbx)
    3634:	31 d2                	xor    %edx,%edx
    3636:	39 c2                	cmp    %eax,%edx
    3638:	74 31                	je     366b <read_buffer+0x9b>
    363a:	f3 0f 6f 06          	movdqu (%rsi),%xmm0
    363e:	b8 10 00 00 00       	mov    $0x10,%eax
    3643:	0f 11 45 00          	movups %xmm0,0x0(%rbp)
    3647:	83 83 04 00 00 01 01 	addl   $0x1,0x1000004(%rbx)
    364e:	48 83 c4 08          	add    $0x8,%rsp
    3652:	5b                   	pop    %rbx
    3653:	5d                   	pop    %rbp
    3654:	c3                   	ret    
    3655:	0f 1f 00             	nopl   (%rax)
    3658:	89 d6                	mov    %edx,%esi
    365a:	8b 83 00 00 00 01    	mov    0x1000000(%rbx),%eax
    3660:	48 c1 e6 04          	shl    $0x4,%rsi
    3664:	48 01 de             	add    %rbx,%rsi
    3667:	39 c2                	cmp    %eax,%edx
    3669:	75 cf                	jne    363a <read_buffer+0x6a>
    366b:	0f b6 83 08 00 00 01 	movzbl 0x1000008(%rbx),%eax
    3672:	83 f8 08             	cmp    $0x8,%eax
    3675:	73 21                	jae    3698 <read_buffer+0xc8>
    3677:	a8 04                	test   $0x4,%al
    3679:	75 75                	jne    36f0 <read_buffer+0x120>
    367b:	85 c0                	test   %eax,%eax
    367d:	75 59                	jne    36d8 <read_buffer+0x108>
    367f:	0f b6 83 08 00 00 01 	movzbl 0x1000008(%rbx),%eax
    3686:	c6 83 08 00 00 01 00 	movb   $0x0,0x1000008(%rbx)
    368d:	48 83 c4 08          	add    $0x8,%rsp
    3691:	5b                   	pop    %rbx
    3692:	5d                   	pop    %rbp
    3693:	c3                   	ret    
    3694:	0f 1f 40 00          	nopl   0x0(%rax)
    3698:	48 8b 16             	mov    (%rsi),%rdx
    369b:	48 8d 7d 08          	lea    0x8(%rbp),%rdi
    369f:	48 83 e7 f8          	and    $0xfffffffffffffff8,%rdi
    36a3:	48 89 55 00          	mov    %rdx,0x0(%rbp)
    36a7:	48 8b 54 06 f8       	mov    -0x8(%rsi,%rax,1),%rdx
    36ac:	48 89 54 05 f8       	mov    %rdx,-0x8(%rbp,%rax,1)
    36b1:	48 29 fd             	sub    %rdi,%rbp
    36b4:	8d 0c 28             	lea    (%rax,%rbp,1),%ecx
    36b7:	48 29 ee             	sub    %rbp,%rsi
    36ba:	89 c8                	mov    %ecx,%eax
    36bc:	c1 e8 03             	shr    $0x3,%eax
    36bf:	89 c1                	mov    %eax,%ecx
    36c1:	f3 48 a5             	rep movsq %ds:(%rsi),%es:(%rdi)
    36c4:	0f b6 83 08 00 00 01 	movzbl 0x1000008(%rbx),%eax
    36cb:	c6 83 08 00 00 01 00 	movb   $0x0,0x1000008(%rbx)
    36d2:	eb b9                	jmp    368d <read_buffer+0xbd>
    36d4:	0f 1f 40 00          	nopl   0x0(%rax)
    36d8:	0f b6 16             	movzbl (%rsi),%edx
    36db:	88 55 00             	mov    %dl,0x0(%rbp)
    36de:	a8 02                	test   $0x2,%al
    36e0:	74 9d                	je     367f <read_buffer+0xaf>
    36e2:	0f b7 54 06 fe       	movzwl -0x2(%rsi,%rax,1),%edx
    36e7:	66 89 54 05 fe       	mov    %dx,-0x2(%rbp,%rax,1)
    36ec:	eb 91                	jmp    367f <read_buffer+0xaf>
    36ee:	66 90                	xchg   %ax,%ax
    36f0:	8b 16                	mov    (%rsi),%edx
    36f2:	89 55 00             	mov    %edx,0x0(%rbp)
    36f5:	8b 54 06 fc          	mov    -0x4(%rsi,%rax,1),%edx
    36f9:	89 54 05 fc          	mov    %edx,-0x4(%rbp,%rax,1)
    36fd:	eb 80                	jmp    367f <read_buffer+0xaf>
    36ff:	90                   	nop

0000000000003700 <bufferover>:
    3700:	f3 0f 1e fa          	endbr64 
    3704:	8b 87 00 00 00 01    	mov    0x1000000(%rdi),%eax
    370a:	39 87 04 00 00 01    	cmp    %eax,0x1000004(%rdi)
    3710:	75 07                	jne    3719 <bufferover+0x19>
    3712:	3d 00 00 10 00       	cmp    $0x100000,%eax
    3717:	75 07                	jne    3720 <bufferover+0x20>
    3719:	31 c0                	xor    %eax,%eax
    371b:	c3                   	ret    
    371c:	0f 1f 40 00          	nopl   0x0(%rax)
    3720:	31 c0                	xor    %eax,%eax
    3722:	80 bf 08 00 00 01 00 	cmpb   $0x0,0x1000008(%rdi)
    3729:	0f 94 c0             	sete   %al
    372c:	c3                   	ret    
    372d:	0f 1f 00             	nopl   (%rax)

0000000000003730 <write_buffer>:
    3730:	f3 0f 1e fa          	endbr64 
    3734:	8b 82 00 00 00 01    	mov    0x1000000(%rdx),%eax
    373a:	f3 0f 6f 06          	movdqu (%rsi),%xmm0
    373e:	48 c1 e0 04          	shl    $0x4,%rax
    3742:	0f 11 04 02          	movups %xmm0,(%rdx,%rax,1)
    3746:	8b 82 00 00 00 01    	mov    0x1000000(%rdx),%eax
    374c:	83 c0 01             	add    $0x1,%eax
    374f:	89 82 00 00 00 01    	mov    %eax,0x1000000(%rdx)
    3755:	3d 00 00 10 00       	cmp    $0x100000,%eax
    375a:	74 04                	je     3760 <write_buffer+0x30>
    375c:	c3                   	ret    
    375d:	0f 1f 00             	nopl   (%rax)
    3760:	53                   	push   %rbx
    3761:	48 89 d3             	mov    %rdx,%rbx
    3764:	48 89 f9             	mov    %rdi,%rcx
    3767:	ba 00 00 00 01       	mov    $0x1000000,%edx
    376c:	48 89 df             	mov    %rbx,%rdi
    376f:	be 01 00 00 00       	mov    $0x1,%esi
    3774:	e8 d7 da ff ff       	call   1250 <fwrite@plt>
    3779:	c7 83 00 00 00 01 00 	movl   $0x0,0x1000000(%rbx)
    3780:	00 00 00 
    3783:	5b                   	pop    %rbx
    3784:	c3                   	ret    
    3785:	66 66 2e 0f 1f 84 00 	data16 cs nopw 0x0(%rax,%rax,1)
    378c:	00 00 00 00 

0000000000003790 <final_write>:
    3790:	f3 0f 1e fa          	endbr64 
    3794:	8b 96 00 00 00 01    	mov    0x1000000(%rsi),%edx
    379a:	48 89 f9             	mov    %rdi,%rcx
    379d:	48 89 f7             	mov    %rsi,%rdi
    37a0:	be 01 00 00 00       	mov    $0x1,%esi
    37a5:	c1 e2 04             	shl    $0x4,%edx
    37a8:	e9 a3 da ff ff       	jmp    1250 <fwrite@plt>
    37ad:	0f 1f 00             	nopl   (%rax)

00000000000037b0 <read_buffer64>:
    37b0:	f3 0f 1e fa          	endbr64 
    37b4:	55                   	push   %rbp
    37b5:	48 89 f9             	mov    %rdi,%rcx
    37b8:	48 89 f5             	mov    %rsi,%rbp
    37bb:	53                   	push   %rbx
    37bc:	48 89 d3             	mov    %rdx,%rbx
    37bf:	48 83 ec 08          	sub    $0x8,%rsp
    37c3:	8b 92 04 00 00 01    	mov    0x1000004(%rdx),%edx
    37c9:	81 fa 00 00 04 00    	cmp    $0x40000,%edx
    37cf:	74 09                	je     37da <read_buffer64+0x2a>
    37d1:	80 bb 09 00 00 01 00 	cmpb   $0x0,0x1000009(%rbx)
    37d8:	75 76                	jne    3850 <read_buffer64+0xa0>
    37da:	ba 00 00 00 01       	mov    $0x1000000,%edx
    37df:	be 01 00 00 00       	mov    $0x1,%esi
    37e4:	48 89 df             	mov    %rbx,%rdi
    37e7:	e8 94 d9 ff ff       	call   1180 <fread@plt>
    37ec:	c6 83 09 00 00 01 01 	movb   $0x1,0x1000009(%rbx)
    37f3:	48 89 de             	mov    %rbx,%rsi
    37f6:	c7 83 04 00 00 01 00 	movl   $0x0,0x1000004(%rbx)
    37fd:	00 00 00 
    3800:	89 c2                	mov    %eax,%edx
    3802:	c1 e8 06             	shr    $0x6,%eax
    3805:	83 e2 3f             	and    $0x3f,%edx
    3808:	89 83 00 00 00 01    	mov    %eax,0x1000000(%rbx)
    380e:	88 93 08 00 00 01    	mov    %dl,0x1000008(%rbx)
    3814:	31 d2                	xor    %edx,%edx
    3816:	39 c2                	cmp    %eax,%edx
    3818:	74 49                	je     3863 <read_buffer64+0xb3>
    381a:	f3 0f 6f 06          	movdqu (%rsi),%xmm0
    381e:	b8 40 00 00 00       	mov    $0x40,%eax
    3823:	0f 11 45 00          	movups %xmm0,0x0(%rbp)
    3827:	f3 0f 6f 4e 10       	movdqu 0x10(%rsi),%xmm1
    382c:	0f 11 4d 10          	movups %xmm1,0x10(%rbp)
    3830:	f3 0f 6f 56 20       	movdqu 0x20(%rsi),%xmm2
    3835:	0f 11 55 20          	movups %xmm2,0x20(%rbp)
    3839:	f3 0f 6f 5e 30       	movdqu 0x30(%rsi),%xmm3
    383e:	0f 11 5d 30          	movups %xmm3,0x30(%rbp)
    3842:	83 83 04 00 00 01 01 	addl   $0x1,0x1000004(%rbx)
    3849:	48 83 c4 08          	add    $0x8,%rsp
    384d:	5b                   	pop    %rbx
    384e:	5d                   	pop    %rbp
    384f:	c3                   	ret    
    3850:	89 d6                	mov    %edx,%esi
    3852:	8b 83 00 00 00 01    	mov    0x1000000(%rbx),%eax
    3858:	48 c1 e6 06          	shl    $0x6,%rsi
    385c:	48 01 de             	add    %rbx,%rsi
    385f:	39 c2                	cmp    %eax,%edx
    3861:	75 b7                	jne    381a <read_buffer64+0x6a>
    3863:	0f b6 83 08 00 00 01 	movzbl 0x1000008(%rbx),%eax
    386a:	83 f8 08             	cmp    $0x8,%eax
    386d:	73 21                	jae    3890 <read_buffer64+0xe0>
    386f:	a8 04                	test   $0x4,%al
    3871:	75 7d                	jne    38f0 <read_buffer64+0x140>
    3873:	85 c0                	test   %eax,%eax
    3875:	75 59                	jne    38d0 <read_buffer64+0x120>
    3877:	0f b6 83 08 00 00 01 	movzbl 0x1000008(%rbx),%eax
    387e:	c6 83 08 00 00 01 00 	movb   $0x0,0x1000008(%rbx)
    3885:	48 83 c4 08          	add    $0x8,%rsp
    3889:	5b                   	pop    %rbx
    388a:	5d                   	pop    %rbp
    388b:	c3                   	ret    
    388c:	0f 1f 40 00          	nopl   0x0(%rax)
    3890:	48 8b 16             	mov    (%rsi),%rdx
    3893:	48 8d 7d 08          	lea    0x8(%rbp),%rdi
    3897:	48 83 e7 f8          	and    $0xfffffffffffffff8,%rdi
    389b:	48 89 55 00          	mov    %rdx,0x0(%rbp)
    389f:	48 8b 54 06 f8       	mov    -0x8(%rsi,%rax,1),%rdx
    38a4:	48 89 54 05 f8       	mov    %rdx,-0x8(%rbp,%rax,1)
    38a9:	48 29 fd             	sub    %rdi,%rbp
    38ac:	8d 0c 28             	lea    (%rax,%rbp,1),%ecx
    38af:	48 29 ee             	sub    %rbp,%rsi
    38b2:	89 c8                	mov    %ecx,%eax
    38b4:	c1 e8 03             	shr    $0x3,%eax
    38b7:	89 c1                	mov    %eax,%ecx
    38b9:	f3 48 a5             	rep movsq %ds:(%rsi),%es:(%rdi)
    38bc:	0f b6 83 08 00 00 01 	movzbl 0x1000008(%rbx),%eax
    38c3:	c6 83 08 00 00 01 00 	movb   $0x0,0x1000008(%rbx)
    38ca:	eb b9                	jmp    3885 <read_buffer64+0xd5>
    38cc:	0f 1f 40 00          	nopl   0x0(%rax)
    38d0:	0f b6 16             	movzbl (%rsi),%edx
    38d3:	88 55 00             	mov    %dl,0x0(%rbp)
    38d6:	a8 02                	test   $0x2,%al
    38d8:	74 9d                	je     3877 <read_buffer64+0xc7>
    38da:	0f b7 54 06 fe       	movzwl -0x2(%rsi,%rax,1),%edx
    38df:	66 89 54 05 fe       	mov    %dx,-0x2(%rbp,%rax,1)
    38e4:	eb 91                	jmp    3877 <read_buffer64+0xc7>
    38e6:	66 2e 0f 1f 84 00 00 	cs nopw 0x0(%rax,%rax,1)
    38ed:	00 00 00 
    38f0:	8b 16                	mov    (%rsi),%edx
    38f2:	89 55 00             	mov    %edx,0x0(%rbp)
    38f5:	8b 54 06 fc          	mov    -0x4(%rsi,%rax,1),%edx
    38f9:	89 54 05 fc          	mov    %edx,-0x4(%rbp,%rax,1)
    38fd:	e9 75 ff ff ff       	jmp    3877 <read_buffer64+0xc7>
    3902:	66 66 2e 0f 1f 84 00 	data16 cs nopw 0x0(%rax,%rax,1)
    3909:	00 00 00 00 
    390d:	0f 1f 00             	nopl   (%rax)

0000000000003910 <load_buffer>:
    3910:	f3 0f 1e fa          	endbr64 
    3914:	53                   	push   %rbx
    3915:	48 89 f3             	mov    %rsi,%rbx
    3918:	48 89 f9             	mov    %rdi,%rcx
    391b:	ba 00 00 00 01       	mov    $0x1000000,%edx
    3920:	48 89 df             	mov    %rbx,%rdi
    3923:	be 01 00 00 00       	mov    $0x1,%esi
    3928:	e8 53 d8 ff ff       	call   1180 <fread@plt>
    392d:	89 c2                	mov    %eax,%edx
    392f:	41 89 c0             	mov    %eax,%r8d
    3932:	c1 e8 04             	shr    $0x4,%eax
    3935:	83 e2 0f             	and    $0xf,%edx
    3938:	89 83 00 00 00 01    	mov    %eax,0x1000000(%rbx)
    393e:	44 89 c0             	mov    %r8d,%eax
    3941:	88 93 08 00 00 01    	mov    %dl,0x1000008(%rbx)
    3947:	5b                   	pop    %rbx
    3948:	c3                   	ret    
    3949:	0f 1f 80 00 00 00 00 	nopl   0x0(%rax)

0000000000003950 <wread_buffer>:
    3950:	f3 0f 1e fa          	endbr64 
    3954:	8b 8a 00 00 00 01    	mov    0x1000000(%rdx),%ecx
    395a:	89 f8                	mov    %edi,%eax
    395c:	39 f9                	cmp    %edi,%ecx
    395e:	74 30                	je     3990 <wread_buffer+0x40>
    3960:	0f 86 ea 00 00 00    	jbe    3a50 <wread_buffer+0x100>
    3966:	89 f9                	mov    %edi,%ecx
    3968:	83 c0 01             	add    $0x1,%eax
    396b:	41 b8 10 00 00 00    	mov    $0x10,%r8d
    3971:	48 c1 e1 04          	shl    $0x4,%rcx
    3975:	f3 0f 6f 04 0a       	movdqu (%rdx,%rcx,1),%xmm0
    397a:	0f 11 06             	movups %xmm0,(%rsi)
    397d:	89 82 04 00 00 01    	mov    %eax,0x1000004(%rdx)
    3983:	44 89 c0             	mov    %r8d,%eax
    3986:	c3                   	ret    
    3987:	66 0f 1f 84 00 00 00 	nopw   0x0(%rax,%rax,1)
    398e:	00 00 
    3990:	44 0f b6 82 08 00 00 	movzbl 0x1000008(%rdx),%r8d
    3997:	01 
    3998:	89 cf                	mov    %ecx,%edi
    399a:	45 84 c0             	test   %r8b,%r8b
    399d:	75 31                	jne    39d0 <wread_buffer+0x80>
    399f:	41 b8 ff ff ff ff    	mov    $0xffffffff,%r8d
    39a5:	81 ff 00 00 10 00    	cmp    $0x100000,%edi
    39ab:	74 08                	je     39b5 <wread_buffer+0x65>
    39ad:	44 0f b6 82 08 00 00 	movzbl 0x1000008(%rdx),%r8d
    39b4:	01 
    39b5:	89 82 04 00 00 01    	mov    %eax,0x1000004(%rdx)
    39bb:	44 89 c0             	mov    %r8d,%eax
    39be:	c6 82 08 00 00 01 00 	movb   $0x0,0x1000008(%rdx)
    39c5:	c3                   	ret    
    39c6:	66 2e 0f 1f 84 00 00 	cs nopw 0x0(%rax,%rax,1)
    39cd:	00 00 00 
    39d0:	45 0f b6 c8          	movzbl %r8b,%r9d
    39d4:	41 89 c8             	mov    %ecx,%r8d
    39d7:	49 c1 e0 04          	shl    $0x4,%r8
    39db:	49 01 d0             	add    %rdx,%r8
    39de:	41 83 f9 08          	cmp    $0x8,%r9d
    39e2:	73 34                	jae    3a18 <wread_buffer+0xc8>
    39e4:	41 f6 c1 04          	test   $0x4,%r9b
    39e8:	75 71                	jne    3a5b <wread_buffer+0x10b>
    39ea:	45 85 c9             	test   %r9d,%r9d
    39ed:	74 21                	je     3a10 <wread_buffer+0xc0>
    39ef:	41 0f b6 08          	movzbl (%r8),%ecx
    39f3:	88 0e                	mov    %cl,(%rsi)
    39f5:	41 f6 c1 02          	test   $0x2,%r9b
    39f9:	74 48                	je     3a43 <wread_buffer+0xf3>
    39fb:	43 0f b7 4c 01 fe    	movzwl -0x2(%r9,%r8,1),%ecx
    3a01:	66 42 89 4c 0e fe    	mov    %cx,-0x2(%rsi,%r9,1)
    3a07:	8b 8a 00 00 00 01    	mov    0x1000000(%rdx),%ecx
    3a0d:	0f 1f 00             	nopl   (%rax)
    3a10:	89 cf                	mov    %ecx,%edi
    3a12:	eb 8b                	jmp    399f <wread_buffer+0x4f>
    3a14:	0f 1f 40 00          	nopl   0x0(%rax)
    3a18:	49 8b 08             	mov    (%r8),%rcx
    3a1b:	48 8d 7e 08          	lea    0x8(%rsi),%rdi
    3a1f:	48 83 e7 f8          	and    $0xfffffffffffffff8,%rdi
    3a23:	48 89 0e             	mov    %rcx,(%rsi)
    3a26:	4b 8b 4c 01 f8       	mov    -0x8(%r9,%r8,1),%rcx
    3a2b:	4a 89 4c 0e f8       	mov    %rcx,-0x8(%rsi,%r9,1)
    3a30:	48 29 fe             	sub    %rdi,%rsi
    3a33:	41 8d 0c 31          	lea    (%r9,%rsi,1),%ecx
    3a37:	49 29 f0             	sub    %rsi,%r8
    3a3a:	c1 e9 03             	shr    $0x3,%ecx
    3a3d:	4c 89 c6             	mov    %r8,%rsi
    3a40:	f3 48 a5             	rep movsq %ds:(%rsi),%es:(%rdi)
    3a43:	8b 8a 00 00 00 01    	mov    0x1000000(%rdx),%ecx
    3a49:	89 cf                	mov    %ecx,%edi
    3a4b:	e9 4f ff ff ff       	jmp    399f <wread_buffer+0x4f>
    3a50:	41 b8 ff ff ff ff    	mov    $0xffffffff,%r8d
    3a56:	e9 28 ff ff ff       	jmp    3983 <wread_buffer+0x33>
    3a5b:	41 8b 08             	mov    (%r8),%ecx
    3a5e:	89 0e                	mov    %ecx,(%rsi)
    3a60:	43 8b 4c 01 fc       	mov    -0x4(%r9,%r8,1),%ecx
    3a65:	42 89 4c 0e fc       	mov    %ecx,-0x4(%rsi,%r9,1)
    3a6a:	8b 8a 00 00 00 01    	mov    0x1000000(%rdx),%ecx
    3a70:	89 cf                	mov    %ecx,%edi
    3a72:	e9 28 ff ff ff       	jmp    399f <wread_buffer+0x4f>
    3a77:	66 0f 1f 84 00 00 00 	nopw   0x0(%rax,%rax,1)
    3a7e:	00 00 

0000000000003a80 <store_buffer>:
    3a80:	f3 0f 1e fa          	endbr64 
    3a84:	53                   	push   %rbx
    3a85:	48 89 f3             	mov    %rsi,%rbx
    3a88:	48 89 f9             	mov    %rdi,%rcx
    3a8b:	ba 00 00 00 01       	mov    $0x1000000,%edx
    3a90:	48 89 df             	mov    %rbx,%rdi
    3a93:	be 01 00 00 00       	mov    $0x1,%esi
    3a98:	e8 b3 d7 ff ff       	call   1250 <fwrite@plt>
    3a9d:	c7 83 00 00 00 01 00 	movl   $0x0,0x1000000(%rbx)
    3aa4:	00 00 00 
    3aa7:	5b                   	pop    %rbx
    3aa8:	c3                   	ret    
    3aa9:	0f 1f 80 00 00 00 00 	nopl   0x0(%rax)

0000000000003ab0 <wwrite_buffer>:
    3ab0:	f3 0f 1e fa          	endbr64 
    3ab4:	f3 0f 6f 06          	movdqu (%rsi),%xmm0
    3ab8:	89 f8                	mov    %edi,%eax
    3aba:	48 c1 e0 04          	shl    $0x4,%rax
    3abe:	0f 11 04 02          	movups %xmm0,(%rdx,%rax,1)
    3ac2:	8b 8a 00 00 00 01    	mov    0x1000000(%rdx),%ecx
    3ac8:	8d 47 01             	lea    0x1(%rdi),%eax
    3acb:	39 c8                	cmp    %ecx,%eax
    3acd:	0f 42 c1             	cmovb  %ecx,%eax
    3ad0:	89 82 00 00 00 01    	mov    %eax,0x1000000(%rdx)
    3ad6:	c3                   	ret    

Disassembly of section .fini:

0000000000003ad8 <_fini>:
    3ad8:	f3 0f 1e fa          	endbr64 
    3adc:	48 83 ec 08          	sub    $0x8,%rsp
    3ae0:	48 83 c4 08          	add    $0x8,%rsp
    3ae4:	c3                   	ret    
